gplink-1.7.0_beta1 (Aug 26 2015)
Listing File Generated: 2016-6-23  15:01:27
 
 
Address  Value    Disassembly              Source
-------  -----    -----------              ------
                                           ;--------------------------------------------------------
                                           ; File Created by SN-SDCC : ANSI-C Compiler
                                           ; Version 0.0.4 (Aug  7 2015) (MINGW32)
                                           ; This file was generated Thu Jun 23 15:01:24 2016
                                           ;--------------------------------------------------------
                                           ; MC3X port for the RISC core
                                           ;--------------------------------------------------------
                                           ;	.file	"CtrlSbr.c"
                                           	list	p=0311
                                           	radix dec
                                           	include "0311.inc"
                                           
                                           ;MC30P01A.INC  Standard Header File, Version 1.00 by Sinomcu
                                           
                                           
                                           ;==========================================================================
                                           ;
                                           ;       Revision History
                                           ;
                                           ;==========================================================================
                                           
                                           ;Rev:   Date:    Reason:
                                           
                                           ;1.00   12/06/21 Initial Release
                                           
                                           ;==========================================================================
                                           ;
                                           ;       Verify Processor
                                           ;
                                           ;==========================================================================
                                           ;==========================================================================
                                           ;
                                           ;       Register Definitions
                                           ;
                                           ;==========================================================================
                                           
                                           ;----- Register Files------------------------------------------------------
                                           
                                           INDF                         EQU     H'0000'
                                           T0CNT                        EQU     H'0001'
                                           PCL                          EQU     H'0002'
                                           STATUS                       EQU     H'0003'
                                           FSR                          EQU     H'0004'
                                           P0                           EQU     H'0005'
                                           P1                           EQU     H'0006'
                                           MCR                          EQU     H'0008'
                                           KBIM                         EQU     H'0009'
                                           PCLATH                       EQU     H'000A'
                                           PDCON                        EQU     H'000B'
                                           ODCON                        EQU     H'000C'
                                           PUCON                        EQU     H'000D'
                                           INTECON                      EQU     H'000E'
                                           INTFLAG                      EQU     H'000F'
                                           T0CR                         EQU     H'0041'
                                           DDR0                         EQU     H'0045'
                                           DDR1                         EQU     H'0046'
                                           TMCR                         EQU     H'004B'
                                           T1CR                         EQU     H'004C'
                                           T1CNT                        EQU     H'004D'
                                           T1LOAD                       EQU     H'004E'
                                           T1DATA                       EQU     H'004F'
                                           
                                           ;INDF 
                                           #define         INDF7          INDF,7
                                           #define         INDF6          INDF,6
                                           #define         INDF5          INDF,5
                                           #define         INDF4          INDF,4
                                           #define         INDF3          INDF,3
                                           #define         INDF2          INDF,2
                                           #define         INDF1          INDF,1
                                           #define         INDF0          INDF,0
                                           
                                           ;T0CNT 
                                           #define         T0C7           T0CNT,7
                                           #define         T0C6           T0CNT,6
                                           #define         T0C5           T0CNT,5
                                           #define         T0C4           T0CNT,4
                                           #define         T0C3           T0CNT,3
                                           #define         T0C2           T0CNT,2
                                           #define         T0C1           T0CNT,1
                                           #define         T0C0           T0CNT,0
                                           
                                           ;PCL 
                                           #define         PC7             PCL,7
                                           #define         PC6             PCL,6
                                           #define         PC5             PCL,5
                                           #define         PC4             PCL,4
                                           #define         PC3             PCL,3
                                           #define         PC2             PCL,2
                                           #define         PC1             PCL,1
                                           #define         PC0             PCL,0
                                           
                                           ;----- STATUS Bits --------------------------
                                           #define	RST	  STATUS,7
                                           #define	TO	  STATUS,4
                                           #define	PD	  STATUS,3
                                           #define	Z	    STATUS,2
                                           #define	DC	  STATUS,1
                                           #define	C	    STATUS,0
                                           
                                           ;FSR 
                                           #define         FSR5           FSR,5
                                           #define         FSR4           FSR,4
                                           #define         FSR3           FSR,3
                                           #define         FSR2           FSR,2
                                           #define         FSR1           FSR,1
                                           #define         FSR0           FSR,0
                                           
                                           ;P0 
                                           #define         P03D           P0,3
                                           #define         P02D           P0,2
                                           #define         P01D           P0,1
                                           #define         P00D           P0,0
                                           
                                           ;P1 
                                           #define         P17D           P1,7
                                           #define         P16D           P1,6
                                           #define         P15D           P1,5
                                           #define         P14D           P1,4
                                           #define         P12D           P1,2
                                           #define         P11D           P1,1
                                           #define         P10D           P1,0
                                           
                                           ;----- MCR Bits --------------------------------------------------------
                                           #define	WDTEN	MCR,7
                                           #define	EIS	  MCR,6
                                           
                                           ;KBIM 
                                           #define         KBIM7           KBIM,7
                                           #define         KBIM6           KBIM,6
                                           #define         KBIM5           KBIM,5
                                           #define         KBIM4           KBIM,4
                                           #define         KBIM3           KBIM,3
                                           #define         KBIM2           KBIM,2
                                           #define         KBIM1           KBIM,1
                                           #define         KBIM0           KBIM,0
                                           
                                           ;----- PCLATH Bits --------------------------------------------------------
                                           #define	PCH1	  PCLATH,1
                                           #define	PCH0	  PCLATH,0
                                           
                                           ;PDCON
                                           #define         P12PD           PDCON,6
                                           #define         P11PD           PDCON,5
                                           #define         P10PD           PDCON,4
                                           #define         P03PD           PDCON,3
                                           #define         P02PD           PDCON,2
                                           #define         P01PD           PDCON,1
                                           #define         P00PD           PDCON,0
                                           
                                           ;ODCON
                                           #define         P17OD           ODCON,7
                                           #define         P16OD           ODCON,6
                                           #define         P15OD           ODCON,5
                                           #define         P14OD           ODCON,4
                                           #define         P12OD           ODCON,2
                                           #define         P11OD           ODCON,1
                                           #define         P10OD           ODCON,0
                                           
                                           ;PUCON
                                           #define         P17PU           PUCON,7
                                           #define         P16PU           PUCON,6
                                           #define         P15PU           PUCON,5
                                           #define         P14PU           PUCON,4
                                           #define         P12PU           PUCON,2
                                           #define         P11PU           PUCON,1
                                           #define         P10PU           PUCON,0
                                           
                                           ;----- INTECON Bits --------------------------------------------------------
                                           #define	INTE	INTECON
                                           #define	GIE	INTECON,7
                                           #define	INT0IE	INTECON,2
                                           #define	KBIE	INTECON,1
                                           #define	T0IE	INTECON,0
                                           
                                           ;----- INTFLAG Bits --------------------------------------------------------
                                           #define	INTF	  INTFLAG
                                           #define	INT0IF	INTF,2
                                           #define	KBIF	  INTF,1
                                           #define	T0IF	  INTF,0
                                           
                                           ;----- T0CR Bits --------------------------------------------------------
                                           #define         INT0M           T0CR,6
                                           #define         T0PTS           T0CR,5
                                           #define         T0SE            T0CR,4
                                           #define         T0PTA           T0CR,3
                                           #define         T0PR2           T0CR,2
                                           #define         T0PR1           T0CR,1
                                           #define         T0PR0           T0CR,0
                                           
                                           ;DDR0
                                           #define         DDR03           DDR0,3
                                           #define         DDR02           DDR0,2
                                           #define         DDR01           DDR0,1
                                           #define         DDR00           DDR0,0
                                           
                                           ;DDR1
                                           #define         DDR17           DDR1,7
                                           #define         DDR16           DDR1,6
                                           #define         DDR15           DDR1,5
                                           #define         DDR14           DDR1,4
                                           #define         DDR12           DDR1,2
                                           #define         DDR11           DDR1,1
                                           #define         DDR10           DDR1,0
                                           
                                           ;------TMCR -----------------
                                           #define TBS     TMCR,7
                                           #define T1IE    TMCR,1
                                           #define T1IF    TMCR,0
                                           
                                           ;-------T1CR----------
                                           #define TMR1EN  T1CR,7
                                           #define PWMOUT  T1CR,6
                                           #define BUZOUT  T1CR,5
                                           #define T1PTS1  T1CR,4
                                           #define T1PTS0  T1CR,3
                                           #define T1PR2   T1CR,2
                                           #define T1PR1   T1CR,1
                                           #define T1PR0   T1CR,0
                                           
                                           ;T1CNT
                                           #define T1C7   T1CNT,7
                                           #define T1C6   T1CNT,6
                                           #define T1C5   T1CNT,5
                                           #define T1C4   T1CNT,4
                                           #define T1C3   T1CNT,3
                                           #define T1C2   T1CNT,2
                                           #define T1C1   T1CNT,1
                                           #define T1C0   T1CNT,0
                                           
                                           ;T1LOAD
                                           #define T1LOAD7   T1LOAD,7
                                           #define T1LOAD6   T1LOAD,6
                                           #define T1LOAD5   T1LOAD,5
                                           #define T1LOAD4   T1LOAD,4
                                           #define T1LOAD3   T1LOAD,3
                                           #define T1LOAD2   T1LOAD,2
                                           #define T1LOAD1   T1LOAD,1
                                           #define T1LOAD0   T1LOAD,0
                                           
                                           ;T1DATA
                                           #define T1DATA7   T1DATA,7
                                           #define T1DATA6   T1DATA,6
                                           #define T1DATA5   T1DATA,5
                                           #define T1DATA4   T1DATA,4
                                           #define T1DATA3   T1DATA,3
                                           #define T1DATA2   T1DATA,2
                                           #define T1DATA1   T1DATA,1
                                           #define T1DATA0   T1DATA,0
                                           ;--------------------------------------------------------
                                           ; external declarations
                                           ;--------------------------------------------------------
                                           	extern	_STATUSbits
                                           	extern	_P0bits
                                           	extern	_P1bits
                                           	extern	_MCRbits
                                           	extern	_KBIMbits
                                           	extern	_PDCONbits
                                           	extern	_ODCONbits
                                           	extern	_PUCONbits
                                           	extern	_INTECONbits
                                           	extern	_INTFLAGbits
                                           	extern	_T0CRbits
                                           	extern	_DDR0bits
                                           	extern	_DDR1bits
                                           	extern	_TMCRbits
                                           	extern	_T1CRbits
                                           	extern	_ABuf
                                           	extern	_StatusBuf
                                           	extern	_T1s
                                           	extern	_TRedCnt
                                           	extern	_TRed
                                           	extern	_TGreen
                                           	extern	_TBlue
                                           	extern	_IRTmr
                                           	extern	_Custom
                                           	extern	_CustomRev
                                           	extern	_IRCode1
                                           	extern	_IRCodeRev1
                                           	extern	_BitCnt
                                           	extern	_delay
                                           	extern	_Tmr
                                           	extern	_TStop
                                           	extern	_T40ms
                                           	extern	_ModeCnt
                                           	extern	_Step
                                           	extern	_delay05ms
                                           	extern	_Flag1
                                           	extern	_Flag2
                                           	extern	_INDF
                                           	extern	_T0CNT
                                           	extern	_PCL
                                           	extern	_STATUS
                                           	extern	_FSR
                                           	extern	_P0
                                           	extern	_P1
                                           	extern	_GPR
                                           	extern	_MCR
                                           	extern	_KBIM
                                           	extern	_PCLATH
                                           	extern	_PDCON
                                           	extern	_ODCON
                                           	extern	_PUCON
                                           	extern	_INTECON
                                           	extern	_INTFLAG
                                           	extern	_T0CR
                                           	extern	_DDR0
                                           	extern	_DDR1
                                           	extern	_TMCR
                                           	extern	_T1CR
                                           	extern	_T1CNT
                                           	extern	_T1LOAD
                                           	extern	_T1DATA
                                           
                                           	extern STK06
                                           	extern STK05
                                           	extern STK04
                                           	extern STK03
                                           	extern STK02
                                           	extern STK01
                                           	extern STK00
                                           ;--------------------------------------------------------
                                           ; global declarations
                                           ;--------------------------------------------------------
                                           	global	_MColorSbr
                                           	global	_Mode2Sbr
                                           
                                           ;--------------------------------------------------------
                                           ; global definitions
                                           ;--------------------------------------------------------
                                           ;--------------------------------------------------------
                                           ; absolute symbol definitions
                                           ;--------------------------------------------------------
                                           ;--------------------------------------------------------
                                           ; compiler-defined variables
                                           ;--------------------------------------------------------
                                           ;--------------------------------------------------------
                                           ; initialized data
                                           ;--------------------------------------------------------
                                           
                                           ;@Allocation info for local variables in function 'MColorSbr'
                                           ;@MColorSbr MColorSbr                 Allocated to registers ;size:2
                                           ;@MColorSbr STATUSbits                Allocated to registers ;size:1
                                           ;@MColorSbr P0bits                    Allocated to registers ;size:1
                                           ;@MColorSbr P1bits                    Allocated to registers ;size:1
                                           ;@MColorSbr MCRbits                   Allocated to registers ;size:1
                                           ;@MColorSbr KBIMbits                  Allocated to registers ;size:1
                                           ;@MColorSbr PDCONbits                 Allocated to registers ;size:1
                                           ;@MColorSbr ODCONbits                 Allocated to registers ;size:1
                                           ;@MColorSbr PUCONbits                 Allocated to registers ;size:1
                                           ;@MColorSbr INTECONbits               Allocated to registers ;size:1
                                           ;@MColorSbr INTFLAGbits               Allocated to registers ;size:1
                                           ;@MColorSbr T0CRbits                  Allocated to registers ;size:1
                                           ;@MColorSbr DDR0bits                  Allocated to registers ;size:1
                                           ;@MColorSbr DDR1bits                  Allocated to registers ;size:1
                                           ;@MColorSbr TMCRbits                  Allocated to registers ;size:1
                                           ;@MColorSbr T1CRbits                  Allocated to registers ;size:1
                                           ;@MColorSbr ABuf                      Allocated to registers ;size:1
                                           ;@MColorSbr StatusBuf                 Allocated to registers ;size:1
                                           ;@MColorSbr T1s                       Allocated to registers ;size:1
                                           ;@MColorSbr TRedCnt                   Allocated to registers ;size:1
                                           ;@MColorSbr TRed                      Allocated to registers ;size:1
                                           ;@MColorSbr TGreen                    Allocated to registers ;size:1
                                           ;@MColorSbr TBlue                     Allocated to registers ;size:1
                                           ;@MColorSbr IRTmr                     Allocated to registers ;size:1
                                           ;@MColorSbr Custom                    Allocated to registers ;size:1
                                           ;@MColorSbr CustomRev                 Allocated to registers ;size:1
                                           ;@MColorSbr IRCode1                   Allocated to registers ;size:1
                                           ;@MColorSbr IRCodeRev1                Allocated to registers ;size:1
                                           ;@MColorSbr BitCnt                    Allocated to registers ;size:1
                                           ;@MColorSbr delay                     Allocated to registers ;size:1
                                           ;@MColorSbr Tmr                       Allocated to registers ;size:2
                                           ;@MColorSbr TStop                     Allocated to registers ;size:1
                                           ;@MColorSbr T40ms                     Allocated to registers ;size:1
                                           ;@MColorSbr ModeCnt                   Allocated to registers ;size:1
                                           ;@MColorSbr Step                      Allocated to registers ;size:1
                                           ;@MColorSbr delay05ms                 Allocated to registers ;size:1
                                           ;@MColorSbr Flag1                     Allocated to registers ;size:1
                                           ;@MColorSbr Flag2                     Allocated to registers ;size:1
                                           ;@MColorSbr INDF                      Allocated to registers ;size:1
                                           ;@MColorSbr T0CNT                     Allocated to registers ;size:1
                                           ;@MColorSbr PCL                       Allocated to registers ;size:1
                                           ;@MColorSbr STATUS                    Allocated to registers ;size:1
                                           ;@MColorSbr FSR                       Allocated to registers ;size:1
                                           ;@MColorSbr P0                        Allocated to registers ;size:1
                                           ;@MColorSbr P1                        Allocated to registers ;size:1
                                           ;@MColorSbr GPR                       Allocated to registers ;size:1
                                           ;@MColorSbr MCR                       Allocated to registers ;size:1
                                           ;@MColorSbr KBIM                      Allocated to registers ;size:1
                                           ;@MColorSbr PCLATH                    Allocated to registers ;size:1
                                           ;@MColorSbr PDCON                     Allocated to registers ;size:1
                                           ;@MColorSbr ODCON                     Allocated to registers ;size:1
                                           ;@MColorSbr PUCON                     Allocated to registers ;size:1
                                           ;@MColorSbr INTECON                   Allocated to registers ;size:1
                                           ;@MColorSbr INTFLAG                   Allocated to registers ;size:1
                                           ;@MColorSbr T0CR                      Allocated to registers ;size:1
                                           ;@MColorSbr DDR0                      Allocated to registers ;size:1
                                           ;@MColorSbr DDR1                      Allocated to registers ;size:1
                                           ;@MColorSbr TMCR                      Allocated to registers ;size:1
                                           ;@MColorSbr T1CR                      Allocated to registers ;size:1
                                           ;@MColorSbr T1CNT                     Allocated to registers ;size:1
                                           ;@MColorSbr T1LOAD                    Allocated to registers ;size:1
                                           ;@MColorSbr T1DATA                    Allocated to registers ;size:1
                                           ;@end Allocation info for local variables in function 'MColorSbr';
                                           ;@Allocation info for local variables in function 'Mode2Sbr'
                                           ;@end Allocation info for local variables in function 'Mode2Sbr';
                                           
                                           ;--------------------------------------------------------
                                           ; overlayable items in internal ram 
                                           ;--------------------------------------------------------
                                           ;	udata_ovr
                                           ;--------------------------------------------------------
                                           ; code
                                           ;--------------------------------------------------------
                                           code_CtrlSbr	code
                                           ;***
                                           ;  pBlock Stats: dbName = C
                                           ;***
                                           ;entry:  _Mode2Sbr	;Function start
                                           ; 2 exit points
                                           ;has an exit
                                           ;; Starting pCode block
                                           _Mode2Sbr	;Function start
                                           ; 2 exit points
                                           ;	.line	66; "CtrlSbr.c"	if (ModeCnt >= Step)
0001b3   1631     movar   0x31             	MOVAR	_Step
0001b4   1230     rsubar  0x30             	RSUBAR	_ModeCnt
0001b5   3003     jbset   0x3, 0           	JBSET	STATUS,0
0001b6   29c0     goto    0x1c0            	GOTO	_00131_DS_
                                           ;;genSkipc:3251: created from rifx:0028608C
                                           ;	.line	68; "CtrlSbr.c"	pBlueC = 1;
0001b7   3946     bset    0x46, 0x2        	BSET	_DDR1bits,2
                                           ;	.line	69; "CtrlSbr.c"	pRedC = 1;
0001b8   3846     bset    0x46, 0          	BSET	_DDR1bits,0
                                           ;	.line	70; "CtrlSbr.c"	pGreenC = 1;
0001b9   38c6     bset    0x46, 0x1        	BSET	_DDR1bits,1
                                           ;;swapping arguments (AOP_TYPEs 1/3)
                                           ;;unsigned compare: left >= lit(0x33=51), size=1
                                           ;	.line	71; "CtrlSbr.c"	if (ModeCnt > 50) ModeCnt = 0;
0001ba   0b33     movai   0x33             	MOVAI	0x33
0001bb   1230     rsubar  0x30             	RSUBAR	_ModeCnt
0001bc   3003     jbset   0x3, 0           	JBSET	STATUS,0
0001bd   29c3     goto    0x1c3            	GOTO	_00133_DS_
                                           ;;genSkipc:3251: created from rifx:0028608C
0001be   1db0     clrr    0x30             	CLRR	_ModeCnt
0001bf   29c3     goto    0x1c3            	GOTO	_00133_DS_
                                           _00131_DS_
                                           ;	.line	75; "CtrlSbr.c"	pBlueC = 0;
0001c0   3d46     bclr    0x46, 0x2        	BCLR	_DDR1bits,2
                                           ;	.line	76; "CtrlSbr.c"	pRedC = 0;
0001c1   3c46     bclr    0x46, 0          	BCLR	_DDR1bits,0
                                           ;	.line	77; "CtrlSbr.c"	pGreenC = 0;
0001c2   3cc6     bclr    0x46, 0x1        	BCLR	_DDR1bits,1
                                           _00133_DS_
0001c3   000c     return                   	RETURN	
                                           ; exit point of _Mode2Sbr
                                           
                                           ;***
                                           ;  pBlock Stats: dbName = C
                                           ;***
                                           ;entry:  _MColorSbr	;Function start
                                           ; 2 exit points
                                           ;has an exit
                                           ;; Starting pCode block
                                           _MColorSbr	;Function start
                                           ; 2 exit points
                                           ;	.line	8; "CtrlSbr.c"	if (++delay >= 4) 
0001c4   19ad     incr    0x2d             	INCR	_delay
                                           ;;unsigned compare: left < lit(0x4=4), size=1
0001c5   0b04     movai   0x4              	MOVAI	0x04
0001c6   122d     rsubar  0x2d             	RSUBAR	_delay
0001c7   3003     jbset   0x3, 0           	JBSET	STATUS,0
0001c8   2a06     goto    0x206            	GOTO	_00123_DS_
                                           ;;genSkipc:3251: created from rifx:0028608C
                                           ;	.line	10; "CtrlSbr.c"	delay = 0;
0001c9   1dad     clrr    0x2d             	CLRR	_delay
                                           ;	.line	11; "CtrlSbr.c"	if (--ModeCnt == 0)
0001ca   1bb0     decr    0x30             	DECR	_ModeCnt
0001cb   0b00     movai   0                	MOVAI	0x00
0001cc   1730     orar    0x30             	ORAR	_ModeCnt
0001cd   3103     jbset   0x3, 0x2         	JBSET	STATUS,2
0001ce   29dd     goto    0x1dd            	GOTO	_00108_DS_
                                           ;	.line	13; "CtrlSbr.c"	TGreen = TColor;
0001cf   0b7f     movai   0x7f             	MOVAI	0x7f
0001d0   15a5     movra   0x25             	MOVRA	_TGreen
                                           ;	.line	14; "CtrlSbr.c"	TRed = TColor;
0001d1   0b7f     movai   0x7f             	MOVAI	0x7f
0001d2   15a4     movra   0x24             	MOVRA	_TRed
                                           ;	.line	15; "CtrlSbr.c"	TBlue = TColor;
0001d3   0b7f     movai   0x7f             	MOVAI	0x7f
0001d4   15a6     movra   0x26             	MOVRA	_TBlue
                                           ;	.line	21; "CtrlSbr.c"	if (++Step > 5) Step = 0;
0001d5   19b1     incr    0x31             	INCR	_Step
                                           ;;swapping arguments (AOP_TYPEs 1/3)
                                           ;;unsigned compare: left >= lit(0x6=6), size=1
0001d6   0b06     movai   0x6              	MOVAI	0x06
0001d7   1231     rsubar  0x31             	RSUBAR	_Step
0001d8   3003     jbset   0x3, 0           	JBSET	STATUS,0
0001d9   29db     goto    0x1db            	GOTO	_00106_DS_
                                           ;;genSkipc:3251: created from rifx:0028608C
0001da   1db1     clrr    0x31             	CLRR	_Step
                                           _00106_DS_
                                           ;	.line	22; "CtrlSbr.c"	ModeCnt = TSteplengh;
0001db   0b7f     movai   0x7f             	MOVAI	0x7f
0001dc   15b0     movra   0x30             	MOVRA	_ModeCnt
                                           _00108_DS_
                                           ;	.line	24; "CtrlSbr.c"	if (Step == 0) {++TGreen;--TBlue;return;}
0001dd   0b00     movai   0                	MOVAI	0x00
0001de   1731     orar    0x31             	ORAR	_Step
0001df   3103     jbset   0x3, 0x2         	JBSET	STATUS,2
0001e0   29e4     goto    0x1e4            	GOTO	_00110_DS_
0001e1   19a5     incr    0x25             	INCR	_TGreen
0001e2   1ba6     decr    0x26             	DECR	_TBlue
0001e3   2a06     goto    0x206            	GOTO	_00123_DS_
                                           _00110_DS_
                                           ;	.line	25; "CtrlSbr.c"	if (Step == 1) {--TGreen;++TBlue;return;}
0001e4   1631     movar   0x31             	MOVAR	_Step
0001e5   0801     xorai   0x1              	XORAI	0x01
0001e6   3103     jbset   0x3, 0x2         	JBSET	STATUS,2
0001e7   29eb     goto    0x1eb            	GOTO	_00112_DS_
0001e8   1ba5     decr    0x25             	DECR	_TGreen
0001e9   19a6     incr    0x26             	INCR	_TBlue
0001ea   2a06     goto    0x206            	GOTO	_00123_DS_
                                           _00112_DS_
                                           ;	.line	26; "CtrlSbr.c"	if (Step == 2) {++TRed;--TBlue;return;}
0001eb   1631     movar   0x31             	MOVAR	_Step
0001ec   0802     xorai   0x2              	XORAI	0x02
0001ed   3103     jbset   0x3, 0x2         	JBSET	STATUS,2
0001ee   29f2     goto    0x1f2            	GOTO	_00114_DS_
0001ef   19a4     incr    0x24             	INCR	_TRed
0001f0   1ba6     decr    0x26             	DECR	_TBlue
0001f1   2a06     goto    0x206            	GOTO	_00123_DS_
                                           _00114_DS_
                                           ;	.line	27; "CtrlSbr.c"	if (Step == 3) {--TRed;++TBlue;return;}
0001f2   1631     movar   0x31             	MOVAR	_Step
0001f3   0803     xorai   0x3              	XORAI	0x03
0001f4   3103     jbset   0x3, 0x2         	JBSET	STATUS,2
0001f5   29f9     goto    0x1f9            	GOTO	_00116_DS_
0001f6   1ba4     decr    0x24             	DECR	_TRed
0001f7   19a6     incr    0x26             	INCR	_TBlue
0001f8   2a06     goto    0x206            	GOTO	_00123_DS_
                                           _00116_DS_
                                           ;	.line	28; "CtrlSbr.c"	if (Step == 4) {++TRed;--TGreen;return;}
0001f9   1631     movar   0x31             	MOVAR	_Step
0001fa   0804     xorai   0x4              	XORAI	0x04
0001fb   3103     jbset   0x3, 0x2         	JBSET	STATUS,2
0001fc   2a00     goto    0x200            	GOTO	_00118_DS_
0001fd   19a4     incr    0x24             	INCR	_TRed
0001fe   1ba5     decr    0x25             	DECR	_TGreen
0001ff   2a06     goto    0x206            	GOTO	_00123_DS_
                                           _00118_DS_
                                           ;	.line	29; "CtrlSbr.c"	if (Step == 5) {--TRed;++TGreen;return;}
000200   1631     movar   0x31             	MOVAR	_Step
000201   0805     xorai   0x5              	XORAI	0x05
000202   3103     jbset   0x3, 0x2         	JBSET	STATUS,2
000203   2a06     goto    0x206            	GOTO	_00123_DS_
000204   1ba4     decr    0x24             	DECR	_TRed
000205   19a5     incr    0x25             	INCR	_TGreen
                                           _00123_DS_
000206   000c     return                   	RETURN	
                                           ; exit point of _MColorSbr
                                           
                                           
                                           ;	code size estimation:
                                           ;	   84+    0 =    84 instructions (  168 byte)
                                           
                                           	end
                                           ;--------------------------------------------------------
                                           ; File Created by SN-SDCC : ANSI-C Compiler
                                           ; Version 0.0.4 (Aug  7 2015) (MINGW32)
                                           ; This file was generated Thu Jun 23 15:01:25 2016
                                           ;--------------------------------------------------------
                                           ; MC3X port for the RISC core
                                           ;--------------------------------------------------------
                                           ;	.file	"initSys.c"
                                           	list	p=0311
                                           	radix dec
                                           	include "0311.inc"
                                           
                                           ;MC30P01A.INC  Standard Header File, Version 1.00 by Sinomcu
                                           
                                           
                                           ;==========================================================================
                                           ;
                                           ;       Revision History
                                           ;
                                           ;==========================================================================
                                           
                                           ;Rev:   Date:    Reason:
                                           
                                           ;1.00   12/06/21 Initial Release
                                           
                                           ;==========================================================================
                                           ;
                                           ;       Verify Processor
                                           ;
                                           ;==========================================================================
                                           ;==========================================================================
                                           ;
                                           ;       Register Definitions
                                           ;
                                           ;==========================================================================
                                           
                                           ;----- Register Files------------------------------------------------------
                                           
                                           INDF                         EQU     H'0000'
                                           T0CNT                        EQU     H'0001'
                                           PCL                          EQU     H'0002'
                                           STATUS                       EQU     H'0003'
                                           FSR                          EQU     H'0004'
                                           P0                           EQU     H'0005'
                                           P1                           EQU     H'0006'
                                           MCR                          EQU     H'0008'
                                           KBIM                         EQU     H'0009'
                                           PCLATH                       EQU     H'000A'
                                           PDCON                        EQU     H'000B'
                                           ODCON                        EQU     H'000C'
                                           PUCON                        EQU     H'000D'
                                           INTECON                      EQU     H'000E'
                                           INTFLAG                      EQU     H'000F'
                                           T0CR                         EQU     H'0041'
                                           DDR0                         EQU     H'0045'
                                           DDR1                         EQU     H'0046'
                                           TMCR                         EQU     H'004B'
                                           T1CR                         EQU     H'004C'
                                           T1CNT                        EQU     H'004D'
                                           T1LOAD                       EQU     H'004E'
                                           T1DATA                       EQU     H'004F'
                                           
                                           ;INDF 
                                           #define         INDF7          INDF,7
                                           #define         INDF6          INDF,6
                                           #define         INDF5          INDF,5
                                           #define         INDF4          INDF,4
                                           #define         INDF3          INDF,3
                                           #define         INDF2          INDF,2
                                           #define         INDF1          INDF,1
                                           #define         INDF0          INDF,0
                                           
                                           ;T0CNT 
                                           #define         T0C7           T0CNT,7
                                           #define         T0C6           T0CNT,6
                                           #define         T0C5           T0CNT,5
                                           #define         T0C4           T0CNT,4
                                           #define         T0C3           T0CNT,3
                                           #define         T0C2           T0CNT,2
                                           #define         T0C1           T0CNT,1
                                           #define         T0C0           T0CNT,0
                                           
                                           ;PCL 
                                           #define         PC7             PCL,7
                                           #define         PC6             PCL,6
                                           #define         PC5             PCL,5
                                           #define         PC4             PCL,4
                                           #define         PC3             PCL,3
                                           #define         PC2             PCL,2
                                           #define         PC1             PCL,1
                                           #define         PC0             PCL,0
                                           
                                           ;----- STATUS Bits --------------------------
                                           #define	RST	  STATUS,7
                                           #define	TO	  STATUS,4
                                           #define	PD	  STATUS,3
                                           #define	Z	    STATUS,2
                                           #define	DC	  STATUS,1
                                           #define	C	    STATUS,0
                                           
                                           ;FSR 
                                           #define         FSR5           FSR,5
                                           #define         FSR4           FSR,4
                                           #define         FSR3           FSR,3
                                           #define         FSR2           FSR,2
                                           #define         FSR1           FSR,1
                                           #define         FSR0           FSR,0
                                           
                                           ;P0 
                                           #define         P03D           P0,3
                                           #define         P02D           P0,2
                                           #define         P01D           P0,1
                                           #define         P00D           P0,0
                                           
                                           ;P1 
                                           #define         P17D           P1,7
                                           #define         P16D           P1,6
                                           #define         P15D           P1,5
                                           #define         P14D           P1,4
                                           #define         P12D           P1,2
                                           #define         P11D           P1,1
                                           #define         P10D           P1,0
                                           
                                           ;----- MCR Bits --------------------------------------------------------
                                           #define	WDTEN	MCR,7
                                           #define	EIS	  MCR,6
                                           
                                           ;KBIM 
                                           #define         KBIM7           KBIM,7
                                           #define         KBIM6           KBIM,6
                                           #define         KBIM5           KBIM,5
                                           #define         KBIM4           KBIM,4
                                           #define         KBIM3           KBIM,3
                                           #define         KBIM2           KBIM,2
                                           #define         KBIM1           KBIM,1
                                           #define         KBIM0           KBIM,0
                                           
                                           ;----- PCLATH Bits --------------------------------------------------------
                                           #define	PCH1	  PCLATH,1
                                           #define	PCH0	  PCLATH,0
                                           
                                           ;PDCON
                                           #define         P12PD           PDCON,6
                                           #define         P11PD           PDCON,5
                                           #define         P10PD           PDCON,4
                                           #define         P03PD           PDCON,3
                                           #define         P02PD           PDCON,2
                                           #define         P01PD           PDCON,1
                                           #define         P00PD           PDCON,0
                                           
                                           ;ODCON
                                           #define         P17OD           ODCON,7
                                           #define         P16OD           ODCON,6
                                           #define         P15OD           ODCON,5
                                           #define         P14OD           ODCON,4
                                           #define         P12OD           ODCON,2
                                           #define         P11OD           ODCON,1
                                           #define         P10OD           ODCON,0
                                           
                                           ;PUCON
                                           #define         P17PU           PUCON,7
                                           #define         P16PU           PUCON,6
                                           #define         P15PU           PUCON,5
                                           #define         P14PU           PUCON,4
                                           #define         P12PU           PUCON,2
                                           #define         P11PU           PUCON,1
                                           #define         P10PU           PUCON,0
                                           
                                           ;----- INTECON Bits --------------------------------------------------------
                                           #define	INTE	INTECON
                                           #define	GIE	INTECON,7
                                           #define	INT0IE	INTECON,2
                                           #define	KBIE	INTECON,1
                                           #define	T0IE	INTECON,0
                                           
                                           ;----- INTFLAG Bits --------------------------------------------------------
                                           #define	INTF	  INTFLAG
                                           #define	INT0IF	INTF,2
                                           #define	KBIF	  INTF,1
                                           #define	T0IF	  INTF,0
                                           
                                           ;----- T0CR Bits --------------------------------------------------------
                                           #define         INT0M           T0CR,6
                                           #define         T0PTS           T0CR,5
                                           #define         T0SE            T0CR,4
                                           #define         T0PTA           T0CR,3
                                           #define         T0PR2           T0CR,2
                                           #define         T0PR1           T0CR,1
                                           #define         T0PR0           T0CR,0
                                           
                                           ;DDR0
                                           #define         DDR03           DDR0,3
                                           #define         DDR02           DDR0,2
                                           #define         DDR01           DDR0,1
                                           #define         DDR00           DDR0,0
                                           
                                           ;DDR1
                                           #define         DDR17           DDR1,7
                                           #define         DDR16           DDR1,6
                                           #define         DDR15           DDR1,5
                                           #define         DDR14           DDR1,4
                                           #define         DDR12           DDR1,2
                                           #define         DDR11           DDR1,1
                                           #define         DDR10           DDR1,0
                                           
                                           ;------TMCR -----------------
                                           #define TBS     TMCR,7
                                           #define T1IE    TMCR,1
                                           #define T1IF    TMCR,0
                                           
                                           ;-------T1CR----------
                                           #define TMR1EN  T1CR,7
                                           #define PWMOUT  T1CR,6
                                           #define BUZOUT  T1CR,5
                                           #define T1PTS1  T1CR,4
                                           #define T1PTS0  T1CR,3
                                           #define T1PR2   T1CR,2
                                           #define T1PR1   T1CR,1
                                           #define T1PR0   T1CR,0
                                           
                                           ;T1CNT
                                           #define T1C7   T1CNT,7
                                           #define T1C6   T1CNT,6
                                           #define T1C5   T1CNT,5
                                           #define T1C4   T1CNT,4
                                           #define T1C3   T1CNT,3
                                           #define T1C2   T1CNT,2
                                           #define T1C1   T1CNT,1
                                           #define T1C0   T1CNT,0
                                           
                                           ;T1LOAD
                                           #define T1LOAD7   T1LOAD,7
                                           #define T1LOAD6   T1LOAD,6
                                           #define T1LOAD5   T1LOAD,5
                                           #define T1LOAD4   T1LOAD,4
                                           #define T1LOAD3   T1LOAD,3
                                           #define T1LOAD2   T1LOAD,2
                                           #define T1LOAD1   T1LOAD,1
                                           #define T1LOAD0   T1LOAD,0
                                           
                                           ;T1DATA
                                           #define T1DATA7   T1DATA,7
                                           #define T1DATA6   T1DATA,6
                                           #define T1DATA5   T1DATA,5
                                           #define T1DATA4   T1DATA,4
                                           #define T1DATA3   T1DATA,3
                                           #define T1DATA2   T1DATA,2
                                           #define T1DATA1   T1DATA,1
                                           #define T1DATA0   T1DATA,0
                                           ;--------------------------------------------------------
                                           ; external declarations
                                           ;--------------------------------------------------------
                                           	extern	_STATUSbits
                                           	extern	_P0bits
                                           	extern	_P1bits
                                           	extern	_MCRbits
                                           	extern	_KBIMbits
                                           	extern	_PDCONbits
                                           	extern	_ODCONbits
                                           	extern	_PUCONbits
                                           	extern	_INTECONbits
                                           	extern	_INTFLAGbits
                                           	extern	_T0CRbits
                                           	extern	_DDR0bits
                                           	extern	_DDR1bits
                                           	extern	_TMCRbits
                                           	extern	_T1CRbits
                                           	extern	_ABuf
                                           	extern	_StatusBuf
                                           	extern	_T1s
                                           	extern	_TRedCnt
                                           	extern	_TRed
                                           	extern	_TGreen
                                           	extern	_TBlue
                                           	extern	_IRTmr
                                           	extern	_Custom
                                           	extern	_CustomRev
                                           	extern	_IRCode1
                                           	extern	_IRCodeRev1
                                           	extern	_BitCnt
                                           	extern	_delay
                                           	extern	_Tmr
                                           	extern	_TStop
                                           	extern	_T40ms
                                           	extern	_ModeCnt
                                           	extern	_Step
                                           	extern	_delay05ms
                                           	extern	_Flag1
                                           	extern	_Flag2
                                           	extern	_INDF
                                           	extern	_T0CNT
                                           	extern	_PCL
                                           	extern	_STATUS
                                           	extern	_FSR
                                           	extern	_P0
                                           	extern	_P1
                                           	extern	_GPR
                                           	extern	_MCR
                                           	extern	_KBIM
                                           	extern	_PCLATH
                                           	extern	_PDCON
                                           	extern	_ODCON
                                           	extern	_PUCON
                                           	extern	_INTECON
                                           	extern	_INTFLAG
                                           	extern	_T0CR
                                           	extern	_DDR0
                                           	extern	_DDR1
                                           	extern	_TMCR
                                           	extern	_T1CR
                                           	extern	_T1CNT
                                           	extern	_T1LOAD
                                           	extern	_T1DATA
                                           
                                           	extern STK06
                                           	extern STK05
                                           	extern STK04
                                           	extern STK03
                                           	extern STK02
                                           	extern STK01
                                           	extern STK00
                                           ;--------------------------------------------------------
                                           ; global declarations
                                           ;--------------------------------------------------------
                                           	global	_InitialSys
                                           	global	_InitalRAM
                                           
                                           ;--------------------------------------------------------
                                           ; global definitions
                                           ;--------------------------------------------------------
                                           ;--------------------------------------------------------
                                           ; absolute symbol definitions
                                           ;--------------------------------------------------------
                                           ;--------------------------------------------------------
                                           ; compiler-defined variables
                                           ;--------------------------------------------------------
                                           ;--------------------------------------------------------
                                           ; initialized data
                                           ;--------------------------------------------------------
                                           
                                           ;@Allocation info for local variables in function 'InitialSys'
                                           ;@InitialSys InitialSys                Allocated to registers ;size:2
                                           ;@InitialSys STATUSbits                Allocated to registers ;size:1
                                           ;@InitialSys P0bits                    Allocated to registers ;size:1
                                           ;@InitialSys P1bits                    Allocated to registers ;size:1
                                           ;@InitialSys MCRbits                   Allocated to registers ;size:1
                                           ;@InitialSys KBIMbits                  Allocated to registers ;size:1
                                           ;@InitialSys PDCONbits                 Allocated to registers ;size:1
                                           ;@InitialSys ODCONbits                 Allocated to registers ;size:1
                                           ;@InitialSys PUCONbits                 Allocated to registers ;size:1
                                           ;@InitialSys INTECONbits               Allocated to registers ;size:1
                                           ;@InitialSys INTFLAGbits               Allocated to registers ;size:1
                                           ;@InitialSys T0CRbits                  Allocated to registers ;size:1
                                           ;@InitialSys DDR0bits                  Allocated to registers ;size:1
                                           ;@InitialSys DDR1bits                  Allocated to registers ;size:1
                                           ;@InitialSys TMCRbits                  Allocated to registers ;size:1
                                           ;@InitialSys T1CRbits                  Allocated to registers ;size:1
                                           ;@InitialSys ABuf                      Allocated to registers ;size:1
                                           ;@InitialSys StatusBuf                 Allocated to registers ;size:1
                                           ;@InitialSys T1s                       Allocated to registers ;size:1
                                           ;@InitialSys TRedCnt                   Allocated to registers ;size:1
                                           ;@InitialSys TRed                      Allocated to registers ;size:1
                                           ;@InitialSys TGreen                    Allocated to registers ;size:1
                                           ;@InitialSys TBlue                     Allocated to registers ;size:1
                                           ;@InitialSys IRTmr                     Allocated to registers ;size:1
                                           ;@InitialSys Custom                    Allocated to registers ;size:1
                                           ;@InitialSys CustomRev                 Allocated to registers ;size:1
                                           ;@InitialSys IRCode1                   Allocated to registers ;size:1
                                           ;@InitialSys IRCodeRev1                Allocated to registers ;size:1
                                           ;@InitialSys BitCnt                    Allocated to registers ;size:1
                                           ;@InitialSys delay                     Allocated to registers ;size:1
                                           ;@InitialSys Tmr                       Allocated to registers ;size:2
                                           ;@InitialSys TStop                     Allocated to registers ;size:1
                                           ;@InitialSys T40ms                     Allocated to registers ;size:1
                                           ;@InitialSys ModeCnt                   Allocated to registers ;size:1
                                           ;@InitialSys Step                      Allocated to registers ;size:1
                                           ;@InitialSys delay05ms                 Allocated to registers ;size:1
                                           ;@InitialSys Flag1                     Allocated to registers ;size:1
                                           ;@InitialSys Flag2                     Allocated to registers ;size:1
                                           ;@InitialSys INDF                      Allocated to registers ;size:1
                                           ;@InitialSys T0CNT                     Allocated to registers ;size:1
                                           ;@InitialSys PCL                       Allocated to registers ;size:1
                                           ;@InitialSys STATUS                    Allocated to registers ;size:1
                                           ;@InitialSys FSR                       Allocated to registers ;size:1
                                           ;@InitialSys P0                        Allocated to registers ;size:1
                                           ;@InitialSys P1                        Allocated to registers ;size:1
                                           ;@InitialSys GPR                       Allocated to registers ;size:1
                                           ;@InitialSys MCR                       Allocated to registers ;size:1
                                           ;@InitialSys KBIM                      Allocated to registers ;size:1
                                           ;@InitialSys PCLATH                    Allocated to registers ;size:1
                                           ;@InitialSys PDCON                     Allocated to registers ;size:1
                                           ;@InitialSys ODCON                     Allocated to registers ;size:1
                                           ;@InitialSys PUCON                     Allocated to registers ;size:1
                                           ;@InitialSys INTECON                   Allocated to registers ;size:1
                                           ;@InitialSys INTFLAG                   Allocated to registers ;size:1
                                           ;@InitialSys T0CR                      Allocated to registers ;size:1
                                           ;@InitialSys DDR0                      Allocated to registers ;size:1
                                           ;@InitialSys DDR1                      Allocated to registers ;size:1
                                           ;@InitialSys TMCR                      Allocated to registers ;size:1
                                           ;@InitialSys T1CR                      Allocated to registers ;size:1
                                           ;@InitialSys T1CNT                     Allocated to registers ;size:1
                                           ;@InitialSys T1LOAD                    Allocated to registers ;size:1
                                           ;@InitialSys T1DATA                    Allocated to registers ;size:1
                                           ;@end Allocation info for local variables in function 'InitialSys';
                                           ;@Allocation info for local variables in function 'InitalRAM'
                                           ;@end Allocation info for local variables in function 'InitalRAM';
                                           
                                           ;--------------------------------------------------------
                                           ; overlayable items in internal ram 
                                           ;--------------------------------------------------------
                                           ;	udata_ovr
                                           ;--------------------------------------------------------
                                           ; code
                                           ;--------------------------------------------------------
                                           code_initSys	code
                                           ;***
                                           ;  pBlock Stats: dbName = C
                                           ;***
                                           ;entry:  _InitalRAM	;Function start
                                           ; 2 exit points
                                           ;has an exit
                                           ;; Starting pCode block
                                           _InitalRAM	;Function start
                                           ; 2 exit points
                                           ;	.line	56; "initSys.c"	__endasm;
000207   0b15     movai   0x15             	movai 0x15
000208   1584     movra   0x4              	movra FSR
                                           InitalRAM0:
000209   1d80     clrr    0                	clrr INDF
00020a   1984     incr    0x4              	incr FSR
00020b   0bc0     movai   0xc0             	movai 0xc0
00020c   1204     rsubar  0x4              	rsubar FSR
00020d   3003     jbset   0x3, 0           	jbset STATUS,0
00020e   2a09     goto    0x209            	goto InitalRAM0
                                           	
                                           ;	.line	58; "initSys.c"	T1s = 250;
00020f   0bfa     movai   0xfa             	MOVAI	0xfa
000210   15a2     movra   0x22             	MOVRA	_T1s
000211   000c     return                   	RETURN	
                                           ; exit point of _InitalRAM
                                           
                                           ;***
                                           ;  pBlock Stats: dbName = C
                                           ;***
                                           ;entry:  _InitialSys	;Function start
                                           ; 2 exit points
                                           ;has an exit
                                           ;; Starting pCode block
                                           _InitialSys	;Function start
                                           ; 2 exit points
                                           ;	.line	10; "initSys.c"	pRed = 1;
000212   3806     bset    0x6, 0           	BSET	_P1bits,0
                                           ;	.line	11; "initSys.c"	pGreen = 1;
000213   3886     bset    0x6, 0x1         	BSET	_P1bits,1
                                           ;	.line	12; "initSys.c"	pBlue = 1;
000214   3906     bset    0x6, 0x2         	BSET	_P1bits,2
                                           ;	.line	14; "initSys.c"	DDR0 = 0;
000215   1dc5     clrr    0x45             	CLRR	_DDR0
                                           ;	.line	15; "initSys.c"	DDR1 = 0;
000216   1dc6     clrr    0x46             	CLRR	_DDR1
                                           ;	.line	16; "initSys.c"	DDR1 |= 0x08;
000217   39c6     bset    0x46, 0x3        	BSET	_DDR1,3
                                           ;	.line	17; "initSys.c"	PDCON = 0xFF;                    
000218   0bff     movai   0xff             	MOVAI	0xff
000219   158b     movra   0xb              	MOVRA	_PDCON
                                           ;	.line	18; "initSys.c"	PUCON = 0xFF;
00021a   0bff     movai   0xff             	MOVAI	0xff
00021b   158d     movra   0xd              	MOVRA	_PUCON
                                           ;	.line	19; "initSys.c"	ODCON = 0;
00021c   1d8c     clrr    0xc              	CLRR	_ODCON
                                           ;	.line	23; "initSys.c"	T0CR = 1;
00021d   0b01     movai   0x1              	MOVAI	0x01
00021e   15c1     movra   0x41             	MOVRA	_T0CR
                                           ;	.line	24; "initSys.c"	T0CNT = CT0;
00021f   0bf0     movai   0xf0             	MOVAI	0xf0
000220   1581     movra   0x1              	MOVRA	_T0CNT
                                           ;	.line	25; "initSys.c"	T0IE = 1;  	   	//;
000221   380e     bset    0xe, 0           	BSET	_INTECONbits,0
                                           ;	.line	31; "initSys.c"	TMCR = 0;
000222   1dcb     clrr    0x4b             	CLRR	_TMCR
                                           ;	.line	32; "initSys.c"	T1CR = 0x86;
000223   0b86     movai   0x86             	MOVAI	0x86
000224   15cc     movra   0x4c             	MOVRA	_T1CR
                                           ;	.line	33; "initSys.c"	T1LOAD = 249;
000225   0bf9     movai   0xf9             	MOVAI	0xf9
000226   15ce     movra   0x4e             	MOVRA	_T1LOAD
                                           ;	.line	34; "initSys.c"	T1DATA = 0;
000227   1dcf     clrr    0x4f             	CLRR	_T1DATA
                                           ;	.line	37; "initSys.c"	MCR = 0x80;                    
000228   0b80     movai   0x80             	MOVAI	0x80
000229   1588     movra   0x8              	MOVRA	_MCR
                                           ;	.line	39; "initSys.c"	KBIM = 0;                      
00022a   1d89     clrr    0x9              	CLRR	_KBIM
00022b   000c     return                   	RETURN	
                                           ; exit point of _InitialSys
                                           
                                           
                                           ;	code size estimation:
                                           ;	   29+    0 =    29 instructions (   58 byte)
                                           
                                           	end
                                           ;--------------------------------------------------------
                                           ; File Created by SN-SDCC : ANSI-C Compiler
                                           ; Version 0.0.4 (Aug  7 2015) (MINGW32)
                                           ; This file was generated Thu Jun 23 15:01:25 2016
                                           ;--------------------------------------------------------
                                           ; MC3X port for the RISC core
                                           ;--------------------------------------------------------
                                           ;	.file	"interrupt.c"
                                           	list	p=0311
                                           	radix dec
                                           	include "0311.inc"
                                           
                                           ;MC30P01A.INC  Standard Header File, Version 1.00 by Sinomcu
                                           
                                           
                                           ;==========================================================================
                                           ;
                                           ;       Revision History
                                           ;
                                           ;==========================================================================
                                           
                                           ;Rev:   Date:    Reason:
                                           
                                           ;1.00   12/06/21 Initial Release
                                           
                                           ;==========================================================================
                                           ;
                                           ;       Verify Processor
                                           ;
                                           ;==========================================================================
                                           ;==========================================================================
                                           ;
                                           ;       Register Definitions
                                           ;
                                           ;==========================================================================
                                           
                                           ;----- Register Files------------------------------------------------------
                                           
                                           INDF                         EQU     H'0000'
                                           T0CNT                        EQU     H'0001'
                                           PCL                          EQU     H'0002'
                                           STATUS                       EQU     H'0003'
                                           FSR                          EQU     H'0004'
                                           P0                           EQU     H'0005'
                                           P1                           EQU     H'0006'
                                           MCR                          EQU     H'0008'
                                           KBIM                         EQU     H'0009'
                                           PCLATH                       EQU     H'000A'
                                           PDCON                        EQU     H'000B'
                                           ODCON                        EQU     H'000C'
                                           PUCON                        EQU     H'000D'
                                           INTECON                      EQU     H'000E'
                                           INTFLAG                      EQU     H'000F'
                                           T0CR                         EQU     H'0041'
                                           DDR0                         EQU     H'0045'
                                           DDR1                         EQU     H'0046'
                                           TMCR                         EQU     H'004B'
                                           T1CR                         EQU     H'004C'
                                           T1CNT                        EQU     H'004D'
                                           T1LOAD                       EQU     H'004E'
                                           T1DATA                       EQU     H'004F'
                                           
                                           ;INDF 
                                           #define         INDF7          INDF,7
                                           #define         INDF6          INDF,6
                                           #define         INDF5          INDF,5
                                           #define         INDF4          INDF,4
                                           #define         INDF3          INDF,3
                                           #define         INDF2          INDF,2
                                           #define         INDF1          INDF,1
                                           #define         INDF0          INDF,0
                                           
                                           ;T0CNT 
                                           #define         T0C7           T0CNT,7
                                           #define         T0C6           T0CNT,6
                                           #define         T0C5           T0CNT,5
                                           #define         T0C4           T0CNT,4
                                           #define         T0C3           T0CNT,3
                                           #define         T0C2           T0CNT,2
                                           #define         T0C1           T0CNT,1
                                           #define         T0C0           T0CNT,0
                                           
                                           ;PCL 
                                           #define         PC7             PCL,7
                                           #define         PC6             PCL,6
                                           #define         PC5             PCL,5
                                           #define         PC4             PCL,4
                                           #define         PC3             PCL,3
                                           #define         PC2             PCL,2
                                           #define         PC1             PCL,1
                                           #define         PC0             PCL,0
                                           
                                           ;----- STATUS Bits --------------------------
                                           #define	RST	  STATUS,7
                                           #define	TO	  STATUS,4
                                           #define	PD	  STATUS,3
                                           #define	Z	    STATUS,2
                                           #define	DC	  STATUS,1
                                           #define	C	    STATUS,0
                                           
                                           ;FSR 
                                           #define         FSR5           FSR,5
                                           #define         FSR4           FSR,4
                                           #define         FSR3           FSR,3
                                           #define         FSR2           FSR,2
                                           #define         FSR1           FSR,1
                                           #define         FSR0           FSR,0
                                           
                                           ;P0 
                                           #define         P03D           P0,3
                                           #define         P02D           P0,2
                                           #define         P01D           P0,1
                                           #define         P00D           P0,0
                                           
                                           ;P1 
                                           #define         P17D           P1,7
                                           #define         P16D           P1,6
                                           #define         P15D           P1,5
                                           #define         P14D           P1,4
                                           #define         P12D           P1,2
                                           #define         P11D           P1,1
                                           #define         P10D           P1,0
                                           
                                           ;----- MCR Bits --------------------------------------------------------
                                           #define	WDTEN	MCR,7
                                           #define	EIS	  MCR,6
                                           
                                           ;KBIM 
                                           #define         KBIM7           KBIM,7
                                           #define         KBIM6           KBIM,6
                                           #define         KBIM5           KBIM,5
                                           #define         KBIM4           KBIM,4
                                           #define         KBIM3           KBIM,3
                                           #define         KBIM2           KBIM,2
                                           #define         KBIM1           KBIM,1
                                           #define         KBIM0           KBIM,0
                                           
                                           ;----- PCLATH Bits --------------------------------------------------------
                                           #define	PCH1	  PCLATH,1
                                           #define	PCH0	  PCLATH,0
                                           
                                           ;PDCON
                                           #define         P12PD           PDCON,6
                                           #define         P11PD           PDCON,5
                                           #define         P10PD           PDCON,4
                                           #define         P03PD           PDCON,3
                                           #define         P02PD           PDCON,2
                                           #define         P01PD           PDCON,1
                                           #define         P00PD           PDCON,0
                                           
                                           ;ODCON
                                           #define         P17OD           ODCON,7
                                           #define         P16OD           ODCON,6
                                           #define         P15OD           ODCON,5
                                           #define         P14OD           ODCON,4
                                           #define         P12OD           ODCON,2
                                           #define         P11OD           ODCON,1
                                           #define         P10OD           ODCON,0
                                           
                                           ;PUCON
                                           #define         P17PU           PUCON,7
                                           #define         P16PU           PUCON,6
                                           #define         P15PU           PUCON,5
                                           #define         P14PU           PUCON,4
                                           #define         P12PU           PUCON,2
                                           #define         P11PU           PUCON,1
                                           #define         P10PU           PUCON,0
                                           
                                           ;----- INTECON Bits --------------------------------------------------------
                                           #define	INTE	INTECON
                                           #define	GIE	INTECON,7
                                           #define	INT0IE	INTECON,2
                                           #define	KBIE	INTECON,1
                                           #define	T0IE	INTECON,0
                                           
                                           ;----- INTFLAG Bits --------------------------------------------------------
                                           #define	INTF	  INTFLAG
                                           #define	INT0IF	INTF,2
                                           #define	KBIF	  INTF,1
                                           #define	T0IF	  INTF,0
                                           
                                           ;----- T0CR Bits --------------------------------------------------------
                                           #define         INT0M           T0CR,6
                                           #define         T0PTS           T0CR,5
                                           #define         T0SE            T0CR,4
                                           #define         T0PTA           T0CR,3
                                           #define         T0PR2           T0CR,2
                                           #define         T0PR1           T0CR,1
                                           #define         T0PR0           T0CR,0
                                           
                                           ;DDR0
                                           #define         DDR03           DDR0,3
                                           #define         DDR02           DDR0,2
                                           #define         DDR01           DDR0,1
                                           #define         DDR00           DDR0,0
                                           
                                           ;DDR1
                                           #define         DDR17           DDR1,7
                                           #define         DDR16           DDR1,6
                                           #define         DDR15           DDR1,5
                                           #define         DDR14           DDR1,4
                                           #define         DDR12           DDR1,2
                                           #define         DDR11           DDR1,1
                                           #define         DDR10           DDR1,0
                                           
                                           ;------TMCR -----------------
                                           #define TBS     TMCR,7
                                           #define T1IE    TMCR,1
                                           #define T1IF    TMCR,0
                                           
                                           ;-------T1CR----------
                                           #define TMR1EN  T1CR,7
                                           #define PWMOUT  T1CR,6
                                           #define BUZOUT  T1CR,5
                                           #define T1PTS1  T1CR,4
                                           #define T1PTS0  T1CR,3
                                           #define T1PR2   T1CR,2
                                           #define T1PR1   T1CR,1
                                           #define T1PR0   T1CR,0
                                           
                                           ;T1CNT
                                           #define T1C7   T1CNT,7
                                           #define T1C6   T1CNT,6
                                           #define T1C5   T1CNT,5
                                           #define T1C4   T1CNT,4
                                           #define T1C3   T1CNT,3
                                           #define T1C2   T1CNT,2
                                           #define T1C1   T1CNT,1
                                           #define T1C0   T1CNT,0
                                           
                                           ;T1LOAD
                                           #define T1LOAD7   T1LOAD,7
                                           #define T1LOAD6   T1LOAD,6
                                           #define T1LOAD5   T1LOAD,5
                                           #define T1LOAD4   T1LOAD,4
                                           #define T1LOAD3   T1LOAD,3
                                           #define T1LOAD2   T1LOAD,2
                                           #define T1LOAD1   T1LOAD,1
                                           #define T1LOAD0   T1LOAD,0
                                           
                                           ;T1DATA
                                           #define T1DATA7   T1DATA,7
                                           #define T1DATA6   T1DATA,6
                                           #define T1DATA5   T1DATA,5
                                           #define T1DATA4   T1DATA,4
                                           #define T1DATA3   T1DATA,3
                                           #define T1DATA2   T1DATA,2
                                           #define T1DATA1   T1DATA,1
                                           #define T1DATA0   T1DATA,0
                                           ;--------------------------------------------------------
                                           ; external declarations
                                           ;--------------------------------------------------------
                                           	extern	_IROffKeySbr
                                           	extern	_IRSbr
                                           	extern	_STATUSbits
                                           	extern	_P0bits
                                           	extern	_P1bits
                                           	extern	_MCRbits
                                           	extern	_KBIMbits
                                           	extern	_PDCONbits
                                           	extern	_ODCONbits
                                           	extern	_PUCONbits
                                           	extern	_INTECONbits
                                           	extern	_INTFLAGbits
                                           	extern	_T0CRbits
                                           	extern	_DDR0bits
                                           	extern	_DDR1bits
                                           	extern	_TMCRbits
                                           	extern	_T1CRbits
                                           	extern	_ABuf
                                           	extern	_StatusBuf
                                           	extern	_T1s
                                           	extern	_TRedCnt
                                           	extern	_TRed
                                           	extern	_TGreen
                                           	extern	_TBlue
                                           	extern	_IRTmr
                                           	extern	_Custom
                                           	extern	_CustomRev
                                           	extern	_IRCode1
                                           	extern	_IRCodeRev1
                                           	extern	_BitCnt
                                           	extern	_delay
                                           	extern	_Tmr
                                           	extern	_TStop
                                           	extern	_T40ms
                                           	extern	_ModeCnt
                                           	extern	_Step
                                           	extern	_delay05ms
                                           	extern	_Flag1
                                           	extern	_Flag2
                                           	extern	_INDF
                                           	extern	_T0CNT
                                           	extern	_PCL
                                           	extern	_STATUS
                                           	extern	_FSR
                                           	extern	_P0
                                           	extern	_P1
                                           	extern	_GPR
                                           	extern	_MCR
                                           	extern	_KBIM
                                           	extern	_PCLATH
                                           	extern	_PDCON
                                           	extern	_ODCON
                                           	extern	_PUCON
                                           	extern	_INTECON
                                           	extern	_INTFLAG
                                           	extern	_T0CR
                                           	extern	_DDR0
                                           	extern	_DDR1
                                           	extern	_TMCR
                                           	extern	_T1CR
                                           	extern	_T1CNT
                                           	extern	_T1LOAD
                                           	extern	_T1DATA
                                           
                                           	extern STK06
                                           	extern STK05
                                           	extern STK04
                                           	extern STK03
                                           	extern STK02
                                           	extern STK01
                                           	extern STK00
                                           ;--------------------------------------------------------
                                           ; global declarations
                                           ;--------------------------------------------------------
                                           	global	_int_isr
                                           
                                           ;--------------------------------------------------------
                                           ; global definitions
                                           ;--------------------------------------------------------
                                           ;--------------------------------------------------------
                                           ; absolute symbol definitions
                                           ;--------------------------------------------------------
                                           ;--------------------------------------------------------
                                           ; compiler-defined variables
                                           ;--------------------------------------------------------
                                           ;--------------------------------------------------------
                                           ; initialized data
                                           ;--------------------------------------------------------
                                           
                                           ;@Allocation info for local variables in function 'int_isr'
                                           ;@int_isr IROffKeySbr               Allocated to registers ;size:2
                                           ;@int_isr IRSbr                     Allocated to registers ;size:2
                                           ;@int_isr int_isr                   Allocated to registers ;size:2
                                           ;@int_isr STATUSbits                Allocated to registers ;size:1
                                           ;@int_isr P0bits                    Allocated to registers ;size:1
                                           ;@int_isr P1bits                    Allocated to registers ;size:1
                                           ;@int_isr MCRbits                   Allocated to registers ;size:1
                                           ;@int_isr KBIMbits                  Allocated to registers ;size:1
                                           ;@int_isr PDCONbits                 Allocated to registers ;size:1
                                           ;@int_isr ODCONbits                 Allocated to registers ;size:1
                                           ;@int_isr PUCONbits                 Allocated to registers ;size:1
                                           ;@int_isr INTECONbits               Allocated to registers ;size:1
                                           ;@int_isr INTFLAGbits               Allocated to registers ;size:1
                                           ;@int_isr T0CRbits                  Allocated to registers ;size:1
                                           ;@int_isr DDR0bits                  Allocated to registers ;size:1
                                           ;@int_isr DDR1bits                  Allocated to registers ;size:1
                                           ;@int_isr TMCRbits                  Allocated to registers ;size:1
                                           ;@int_isr T1CRbits                  Allocated to registers ;size:1
                                           ;@int_isr ABuf                      Allocated to registers ;size:1
                                           ;@int_isr StatusBuf                 Allocated to registers ;size:1
                                           ;@int_isr T1s                       Allocated to registers ;size:1
                                           ;@int_isr TRedCnt                   Allocated to registers ;size:1
                                           ;@int_isr TRed                      Allocated to registers ;size:1
                                           ;@int_isr TGreen                    Allocated to registers ;size:1
                                           ;@int_isr TBlue                     Allocated to registers ;size:1
                                           ;@int_isr IRTmr                     Allocated to registers ;size:1
                                           ;@int_isr Custom                    Allocated to registers ;size:1
                                           ;@int_isr CustomRev                 Allocated to registers ;size:1
                                           ;@int_isr IRCode1                   Allocated to registers ;size:1
                                           ;@int_isr IRCodeRev1                Allocated to registers ;size:1
                                           ;@int_isr BitCnt                    Allocated to registers ;size:1
                                           ;@int_isr delay                     Allocated to registers ;size:1
                                           ;@int_isr Tmr                       Allocated to registers ;size:2
                                           ;@int_isr TStop                     Allocated to registers ;size:1
                                           ;@int_isr T40ms                     Allocated to registers ;size:1
                                           ;@int_isr ModeCnt                   Allocated to registers ;size:1
                                           ;@int_isr Step                      Allocated to registers ;size:1
                                           ;@int_isr delay05ms                 Allocated to registers ;size:1
                                           ;@int_isr Flag1                     Allocated to registers ;size:1
                                           ;@int_isr Flag2                     Allocated to registers ;size:1
                                           ;@int_isr INDF                      Allocated to registers ;size:1
                                           ;@int_isr T0CNT                     Allocated to registers ;size:1
                                           ;@int_isr PCL                       Allocated to registers ;size:1
                                           ;@int_isr STATUS                    Allocated to registers ;size:1
                                           ;@int_isr FSR                       Allocated to registers ;size:1
                                           ;@int_isr P0                        Allocated to registers ;size:1
                                           ;@int_isr P1                        Allocated to registers ;size:1
                                           ;@int_isr GPR                       Allocated to registers ;size:1
                                           ;@int_isr MCR                       Allocated to registers ;size:1
                                           ;@int_isr KBIM                      Allocated to registers ;size:1
                                           ;@int_isr PCLATH                    Allocated to registers ;size:1
                                           ;@int_isr PDCON                     Allocated to registers ;size:1
                                           ;@int_isr ODCON                     Allocated to registers ;size:1
                                           ;@int_isr PUCON                     Allocated to registers ;size:1
                                           ;@int_isr INTECON                   Allocated to registers ;size:1
                                           ;@int_isr INTFLAG                   Allocated to registers ;size:1
                                           ;@int_isr T0CR                      Allocated to registers ;size:1
                                           ;@int_isr DDR0                      Allocated to registers ;size:1
                                           ;@int_isr DDR1                      Allocated to registers ;size:1
                                           ;@int_isr TMCR                      Allocated to registers ;size:1
                                           ;@int_isr T1CR                      Allocated to registers ;size:1
                                           ;@int_isr T1CNT                     Allocated to registers ;size:1
                                           ;@int_isr T1LOAD                    Allocated to registers ;size:1
                                           ;@int_isr T1DATA                    Allocated to registers ;size:1
                                           ;@end Allocation info for local variables in function 'int_isr';
                                           
                                           ;--------------------------------------------------------
                                           ; overlayable items in internal ram 
                                           ;--------------------------------------------------------
                                           ;	udata_ovr
                                           ;--------------------------------------------------------
                                           ; interrupt and initialization code
                                           ;--------------------------------------------------------
                                           c_interrupt	code	0x8
                                           __sdcc_interrupt
                                           ;***
                                           ;  pBlock Stats: dbName = I
                                           ;***
                                           ;entry:  _int_isr	;Function start
                                           ; 0 exit points
                                           ;functions called:
                                           ;   _IRSbr
                                           ;   _IRSbr
                                           ;; Starting pCode block
                                           _int_isr	;Function start
                                           ; 0 exit points
                                           ;	.line	13; "interrupt.c"	__endasm;
000008   15a0     movra   0x20             	movra _ABuf
000009   1103     swapar  0x3              	swapar _STATUS
00000a   15a1     movra   0x21             	movra _StatusBuf
                                           	
                                           ;	.line	15; "interrupt.c"	if (KBIF)
00000b   308f     jbset   0xf, 0x1         	JBSET	_INTFLAGbits,1
00000c   2813     goto    0x13             	GOTO	_00108_DS_
                                           ;	.line	17; "interrupt.c"	KBIF = 1;
00000d   388f     bset    0xf, 0x1         	BSET	_INTFLAGbits,1
                                           ;	.line	18; "interrupt.c"	if (!pIR)
00000e   3586     jbclr   0x6, 0x3         	JBCLR	_P1bits,3
00000f   2814     goto    0x14             	GOTO	_00109_DS_
                                           ;	.line	20; "interrupt.c"	FStop = 0;
000010   3fb3     bclr    0x33, 0x7        	BCLR	_Flag1,7
                                           ;	.line	21; "interrupt.c"	IRSbr();
000011   2112     call    0x112            	CALL	_IRSbr
000012   2814     goto    0x14             	GOTO	_00109_DS_
                                           _00108_DS_
                                           ;	.line	24; "interrupt.c"	else IRTmr = 0;
000013   1da7     clrr    0x27             	CLRR	_IRTmr
                                           _00109_DS_
                                           ;	.line	26; "interrupt.c"	if (T0IF)
000014   300f     jbset   0xf, 0           	JBSET	_INTFLAGbits,0
000015   283c     goto    0x3c             	GOTO	_00123_DS_
                                           ;	.line	28; "interrupt.c"	T0IF = 0;
000016   3c0f     bclr    0xf, 0           	BCLR	_INTFLAGbits,0
                                           ;	.line	29; "interrupt.c"	T0CNT = CT0;
000017   0bf0     movai   0xf0             	MOVAI	0xf0
000018   1581     movra   0x1              	MOVRA	_T0CNT
                                           ;	.line	30; "interrupt.c"	++ModeCnt;
000019   19b0     incr    0x30             	INCR	_ModeCnt
                                           ;	.line	31; "interrupt.c"	++TRedCnt;
00001a   19a3     incr    0x23             	INCR	_TRedCnt
                                           ;	.line	32; "interrupt.c"	if (TRedCnt >= TRed) pRed = 0;
00001b   1624     movar   0x24             	MOVAR	_TRed
00001c   1223     rsubar  0x23             	RSUBAR	_TRedCnt
00001d   3003     jbset   0x3, 0           	JBSET	STATUS,0
00001e   2820     goto    0x20             	GOTO	_00111_DS_
                                           ;;genSkipc:3251: created from rifx:0028608C
00001f   3c06     bclr    0x6, 0           	BCLR	_P1bits,0
                                           _00111_DS_
                                           ;	.line	33; "interrupt.c"	if (TRedCnt >= TBlue) pBlue = 0;
000020   1626     movar   0x26             	MOVAR	_TBlue
000021   1223     rsubar  0x23             	RSUBAR	_TRedCnt
000022   3003     jbset   0x3, 0           	JBSET	STATUS,0
000023   2825     goto    0x25             	GOTO	_00113_DS_
                                           ;;genSkipc:3251: created from rifx:0028608C
000024   3d06     bclr    0x6, 0x2         	BCLR	_P1bits,2
                                           _00113_DS_
                                           ;	.line	34; "interrupt.c"	if (TRedCnt >= TGreen) pGreen = 0;
000025   1625     movar   0x25             	MOVAR	_TGreen
000026   1223     rsubar  0x23             	RSUBAR	_TRedCnt
000027   3003     jbset   0x3, 0           	JBSET	STATUS,0
000028   282a     goto    0x2a             	GOTO	_00115_DS_
                                           ;;genSkipc:3251: created from rifx:0028608C
000029   3c86     bclr    0x6, 0x1         	BCLR	_P1bits,1
                                           ;;unsigned compare: left < lit(0xF2=242), size=1
                                           _00115_DS_
                                           ;	.line	35; "interrupt.c"	if (TRedCnt >= 242) 
00002a   0bf2     movai   0xf2             	MOVAI	0xf2
00002b   1223     rsubar  0x23             	RSUBAR	_TRedCnt
00002c   3003     jbset   0x3, 0           	JBSET	STATUS,0
00002d   2832     goto    0x32             	GOTO	_00117_DS_
                                           ;;genSkipc:3251: created from rifx:0028608C
                                           ;	.line	37; "interrupt.c"	TRedCnt = 0;
00002e   1da3     clrr    0x23             	CLRR	_TRedCnt
                                           ;	.line	38; "interrupt.c"	pBlue = 1;
00002f   3906     bset    0x6, 0x2         	BSET	_P1bits,2
                                           ;	.line	39; "interrupt.c"	pGreen = 1;
000030   3886     bset    0x6, 0x1         	BSET	_P1bits,1
                                           ;	.line	40; "interrupt.c"	pRed = 1;
000031   3806     bset    0x6, 0           	BSET	_P1bits,0
                                           _00117_DS_
                                           ;	.line	46; "interrupt.c"	__endasm;
000032   0b04     movai   0x4              	movai 0x04
000033   10b3     xorra   0x33             	xorra _Flag1
                                           	
                                           ;	.line	47; "interrupt.c"	if (FDouble)
000034   3133     jbset   0x33, 0x2        	JBSET	_Flag1,2
000035   283c     goto    0x3c             	GOTO	_00123_DS_
                                           ;	.line	49; "interrupt.c"	if (++IRTmr >= 254) --IRTmr;
000036   19a7     incr    0x27             	INCR	_IRTmr
                                           ;;unsigned compare: left < lit(0xFE=254), size=1
000037   0bfe     movai   0xfe             	MOVAI	0xfe
000038   1227     rsubar  0x27             	RSUBAR	_IRTmr
000039   3003     jbset   0x3, 0           	JBSET	STATUS,0
00003a   283c     goto    0x3c             	GOTO	_00123_DS_
                                           ;;genSkipc:3251: created from rifx:0028608C
00003b   1ba7     decr    0x27             	DECR	_IRTmr
                                           _00123_DS_
                                           ;	.line	53; "interrupt.c"	if (T1IF) {T1IF = 0;F4ms = 1;}
00003c   304b     jbset   0x4b, 0          	JBSET	_TMCRbits,0
00003d   2840     goto    0x40             	GOTO	_00125_DS_
00003e   3c4b     bclr    0x4b, 0          	BCLR	_TMCRbits,0
00003f   3934     bset    0x34, 0x2        	BSET	_Flag2,2
                                           _00125_DS_
                                           ;	.line	59; "interrupt.c"	__endasm;
000040   1121     swapar  0x21             	swapar _StatusBuf
000041   1583     movra   0x3              	movra _STATUS
000042   11a0     swapr   0x20             	swapr _ABuf
000043   1120     swapar  0x20             	swapar _ABuf
                                           	
                                           END_OF_INTERRUPT
000044   000d     retie                    	RETIE	
                                           
                                           ;--------------------------------------------------------
                                           ; code
                                           ;--------------------------------------------------------
                                           code_interrupt	code
                                           
                                           ;	code size estimation:
                                           ;	   52+    0 =    52 instructions (  104 byte)
                                           
                                           	end
                                           ;--------------------------------------------------------
                                           ; File Created by SN-SDCC : ANSI-C Compiler
                                           ; Version 0.0.4 (Aug  7 2015) (MINGW32)
                                           ; This file was generated Thu Jun 23 15:01:26 2016
                                           ;--------------------------------------------------------
                                           ; MC3X port for the RISC core
                                           ;--------------------------------------------------------
                                           ;	.file	"IR.c"
                                           	list	p=0311
                                           	radix dec
                                           	include "0311.inc"
                                           
                                           ;MC30P01A.INC  Standard Header File, Version 1.00 by Sinomcu
                                           
                                           
                                           ;==========================================================================
                                           ;
                                           ;       Revision History
                                           ;
                                           ;==========================================================================
                                           
                                           ;Rev:   Date:    Reason:
                                           
                                           ;1.00   12/06/21 Initial Release
                                           
                                           ;==========================================================================
                                           ;
                                           ;       Verify Processor
                                           ;
                                           ;==========================================================================
                                           ;==========================================================================
                                           ;
                                           ;       Register Definitions
                                           ;
                                           ;==========================================================================
                                           
                                           ;----- Register Files------------------------------------------------------
                                           
                                           INDF                         EQU     H'0000'
                                           T0CNT                        EQU     H'0001'
                                           PCL                          EQU     H'0002'
                                           STATUS                       EQU     H'0003'
                                           FSR                          EQU     H'0004'
                                           P0                           EQU     H'0005'
                                           P1                           EQU     H'0006'
                                           MCR                          EQU     H'0008'
                                           KBIM                         EQU     H'0009'
                                           PCLATH                       EQU     H'000A'
                                           PDCON                        EQU     H'000B'
                                           ODCON                        EQU     H'000C'
                                           PUCON                        EQU     H'000D'
                                           INTECON                      EQU     H'000E'
                                           INTFLAG                      EQU     H'000F'
                                           T0CR                         EQU     H'0041'
                                           DDR0                         EQU     H'0045'
                                           DDR1                         EQU     H'0046'
                                           TMCR                         EQU     H'004B'
                                           T1CR                         EQU     H'004C'
                                           T1CNT                        EQU     H'004D'
                                           T1LOAD                       EQU     H'004E'
                                           T1DATA                       EQU     H'004F'
                                           
                                           ;INDF 
                                           #define         INDF7          INDF,7
                                           #define         INDF6          INDF,6
                                           #define         INDF5          INDF,5
                                           #define         INDF4          INDF,4
                                           #define         INDF3          INDF,3
                                           #define         INDF2          INDF,2
                                           #define         INDF1          INDF,1
                                           #define         INDF0          INDF,0
                                           
                                           ;T0CNT 
                                           #define         T0C7           T0CNT,7
                                           #define         T0C6           T0CNT,6
                                           #define         T0C5           T0CNT,5
                                           #define         T0C4           T0CNT,4
                                           #define         T0C3           T0CNT,3
                                           #define         T0C2           T0CNT,2
                                           #define         T0C1           T0CNT,1
                                           #define         T0C0           T0CNT,0
                                           
                                           ;PCL 
                                           #define         PC7             PCL,7
                                           #define         PC6             PCL,6
                                           #define         PC5             PCL,5
                                           #define         PC4             PCL,4
                                           #define         PC3             PCL,3
                                           #define         PC2             PCL,2
                                           #define         PC1             PCL,1
                                           #define         PC0             PCL,0
                                           
                                           ;----- STATUS Bits --------------------------
                                           #define	RST	  STATUS,7
                                           #define	TO	  STATUS,4
                                           #define	PD	  STATUS,3
                                           #define	Z	    STATUS,2
                                           #define	DC	  STATUS,1
                                           #define	C	    STATUS,0
                                           
                                           ;FSR 
                                           #define         FSR5           FSR,5
                                           #define         FSR4           FSR,4
                                           #define         FSR3           FSR,3
                                           #define         FSR2           FSR,2
                                           #define         FSR1           FSR,1
                                           #define         FSR0           FSR,0
                                           
                                           ;P0 
                                           #define         P03D           P0,3
                                           #define         P02D           P0,2
                                           #define         P01D           P0,1
                                           #define         P00D           P0,0
                                           
                                           ;P1 
                                           #define         P17D           P1,7
                                           #define         P16D           P1,6
                                           #define         P15D           P1,5
                                           #define         P14D           P1,4
                                           #define         P12D           P1,2
                                           #define         P11D           P1,1
                                           #define         P10D           P1,0
                                           
                                           ;----- MCR Bits --------------------------------------------------------
                                           #define	WDTEN	MCR,7
                                           #define	EIS	  MCR,6
                                           
                                           ;KBIM 
                                           #define         KBIM7           KBIM,7
                                           #define         KBIM6           KBIM,6
                                           #define         KBIM5           KBIM,5
                                           #define         KBIM4           KBIM,4
                                           #define         KBIM3           KBIM,3
                                           #define         KBIM2           KBIM,2
                                           #define         KBIM1           KBIM,1
                                           #define         KBIM0           KBIM,0
                                           
                                           ;----- PCLATH Bits --------------------------------------------------------
                                           #define	PCH1	  PCLATH,1
                                           #define	PCH0	  PCLATH,0
                                           
                                           ;PDCON
                                           #define         P12PD           PDCON,6
                                           #define         P11PD           PDCON,5
                                           #define         P10PD           PDCON,4
                                           #define         P03PD           PDCON,3
                                           #define         P02PD           PDCON,2
                                           #define         P01PD           PDCON,1
                                           #define         P00PD           PDCON,0
                                           
                                           ;ODCON
                                           #define         P17OD           ODCON,7
                                           #define         P16OD           ODCON,6
                                           #define         P15OD           ODCON,5
                                           #define         P14OD           ODCON,4
                                           #define         P12OD           ODCON,2
                                           #define         P11OD           ODCON,1
                                           #define         P10OD           ODCON,0
                                           
                                           ;PUCON
                                           #define         P17PU           PUCON,7
                                           #define         P16PU           PUCON,6
                                           #define         P15PU           PUCON,5
                                           #define         P14PU           PUCON,4
                                           #define         P12PU           PUCON,2
                                           #define         P11PU           PUCON,1
                                           #define         P10PU           PUCON,0
                                           
                                           ;----- INTECON Bits --------------------------------------------------------
                                           #define	INTE	INTECON
                                           #define	GIE	INTECON,7
                                           #define	INT0IE	INTECON,2
                                           #define	KBIE	INTECON,1
                                           #define	T0IE	INTECON,0
                                           
                                           ;----- INTFLAG Bits --------------------------------------------------------
                                           #define	INTF	  INTFLAG
                                           #define	INT0IF	INTF,2
                                           #define	KBIF	  INTF,1
                                           #define	T0IF	  INTF,0
                                           
                                           ;----- T0CR Bits --------------------------------------------------------
                                           #define         INT0M           T0CR,6
                                           #define         T0PTS           T0CR,5
                                           #define         T0SE            T0CR,4
                                           #define         T0PTA           T0CR,3
                                           #define         T0PR2           T0CR,2
                                           #define         T0PR1           T0CR,1
                                           #define         T0PR0           T0CR,0
                                           
                                           ;DDR0
                                           #define         DDR03           DDR0,3
                                           #define         DDR02           DDR0,2
                                           #define         DDR01           DDR0,1
                                           #define         DDR00           DDR0,0
                                           
                                           ;DDR1
                                           #define         DDR17           DDR1,7
                                           #define         DDR16           DDR1,6
                                           #define         DDR15           DDR1,5
                                           #define         DDR14           DDR1,4
                                           #define         DDR12           DDR1,2
                                           #define         DDR11           DDR1,1
                                           #define         DDR10           DDR1,0
                                           
                                           ;------TMCR -----------------
                                           #define TBS     TMCR,7
                                           #define T1IE    TMCR,1
                                           #define T1IF    TMCR,0
                                           
                                           ;-------T1CR----------
                                           #define TMR1EN  T1CR,7
                                           #define PWMOUT  T1CR,6
                                           #define BUZOUT  T1CR,5
                                           #define T1PTS1  T1CR,4
                                           #define T1PTS0  T1CR,3
                                           #define T1PR2   T1CR,2
                                           #define T1PR1   T1CR,1
                                           #define T1PR0   T1CR,0
                                           
                                           ;T1CNT
                                           #define T1C7   T1CNT,7
                                           #define T1C6   T1CNT,6
                                           #define T1C5   T1CNT,5
                                           #define T1C4   T1CNT,4
                                           #define T1C3   T1CNT,3
                                           #define T1C2   T1CNT,2
                                           #define T1C1   T1CNT,1
                                           #define T1C0   T1CNT,0
                                           
                                           ;T1LOAD
                                           #define T1LOAD7   T1LOAD,7
                                           #define T1LOAD6   T1LOAD,6
                                           #define T1LOAD5   T1LOAD,5
                                           #define T1LOAD4   T1LOAD,4
                                           #define T1LOAD3   T1LOAD,3
                                           #define T1LOAD2   T1LOAD,2
                                           #define T1LOAD1   T1LOAD,1
                                           #define T1LOAD0   T1LOAD,0
                                           
                                           ;T1DATA
                                           #define T1DATA7   T1DATA,7
                                           #define T1DATA6   T1DATA,6
                                           #define T1DATA5   T1DATA,5
                                           #define T1DATA4   T1DATA,4
                                           #define T1DATA3   T1DATA,3
                                           #define T1DATA2   T1DATA,2
                                           #define T1DATA1   T1DATA,1
                                           #define T1DATA0   T1DATA,0
                                           ;--------------------------------------------------------
                                           ; external declarations
                                           ;--------------------------------------------------------
                                           	extern	_STATUSbits
                                           	extern	_P0bits
                                           	extern	_P1bits
                                           	extern	_MCRbits
                                           	extern	_KBIMbits
                                           	extern	_PDCONbits
                                           	extern	_ODCONbits
                                           	extern	_PUCONbits
                                           	extern	_INTECONbits
                                           	extern	_INTFLAGbits
                                           	extern	_T0CRbits
                                           	extern	_DDR0bits
                                           	extern	_DDR1bits
                                           	extern	_TMCRbits
                                           	extern	_T1CRbits
                                           	extern	_ABuf
                                           	extern	_StatusBuf
                                           	extern	_T1s
                                           	extern	_TRedCnt
                                           	extern	_TRed
                                           	extern	_TGreen
                                           	extern	_TBlue
                                           	extern	_IRTmr
                                           	extern	_Custom
                                           	extern	_CustomRev
                                           	extern	_IRCode1
                                           	extern	_IRCodeRev1
                                           	extern	_BitCnt
                                           	extern	_delay
                                           	extern	_Tmr
                                           	extern	_TStop
                                           	extern	_T40ms
                                           	extern	_ModeCnt
                                           	extern	_Step
                                           	extern	_delay05ms
                                           	extern	_Flag1
                                           	extern	_Flag2
                                           	extern	_INDF
                                           	extern	_T0CNT
                                           	extern	_PCL
                                           	extern	_STATUS
                                           	extern	_FSR
                                           	extern	_P0
                                           	extern	_P1
                                           	extern	_GPR
                                           	extern	_MCR
                                           	extern	_KBIM
                                           	extern	_PCLATH
                                           	extern	_PDCON
                                           	extern	_ODCON
                                           	extern	_PUCON
                                           	extern	_INTECON
                                           	extern	_INTFLAG
                                           	extern	_T0CR
                                           	extern	_DDR0
                                           	extern	_DDR1
                                           	extern	_TMCR
                                           	extern	_T1CR
                                           	extern	_T1CNT
                                           	extern	_T1LOAD
                                           	extern	_T1DATA
                                           	extern	__gptrget1
                                           
                                           	extern STK06
                                           	extern STK05
                                           	extern STK04
                                           	extern STK03
                                           	extern STK02
                                           	extern STK01
                                           	extern STK00
                                           ;--------------------------------------------------------
                                           ; global declarations
                                           ;--------------------------------------------------------
                                           	global	_IRSbr4
                                           	global	_IRSbr
                                           	global	_IROffKeySbr
                                           	global	_BlueTbl
                                           	global	_GreenTbl
                                           	global	_RedTbl
                                           
                                           ;--------------------------------------------------------
                                           ; global definitions
                                           ;--------------------------------------------------------
                                           ;--------------------------------------------------------
                                           ; absolute symbol definitions
                                           ;--------------------------------------------------------
                                           ;--------------------------------------------------------
                                           ; compiler-defined variables
                                           ;--------------------------------------------------------
                                           UDL_IR_0	udata
                                           r0x1012	res	1
                                           r0x1013	res	1
                                           r0x1014	res	1
                                           ;--------------------------------------------------------
                                           ; initialized data
                                           ;--------------------------------------------------------
                                           
                                           ID_IR_0	code
                                           _BlueTbl
00026d   0aff     retai   0xff             	retai 0xff
00026e   0aff     retai   0xff             	retai 0xff
00026f   0a0e     retai   0xe              	retai 0x0e
000270   0afc     retai   0xfc             	retai 0xfc
000271   0af7     retai   0xf7             	retai 0xf7
000272   0a26     retai   0x26             	retai 0x26
000273   0aff     retai   0xff             	retai 0xff
000274   0aae     retai   0xae             	retai 0xae
000275   0ad6     retai   0xd6             	retai 0xd6
000276   0a23     retai   0x23             	retai 0x23
000277   0ad6     retai   0xd6             	retai 0xd6
000278   0a75     retai   0x75             	retai 0x75
                                           
                                           
                                           ID_IR_1	code
                                           _GreenTbl
000279   0aff     retai   0xff             	retai 0xff
00027a   0a0e     retai   0xe              	retai 0x0e
00027b   0aff     retai   0xff             	retai 0xff
00027c   0a8b     retai   0x8b             	retai 0x8b
00027d   0a18     retai   0x18             	retai 0x18
00027e   0af7     retai   0xf7             	retai 0xf7
00027f   0a26     retai   0x26             	retai 0x26
000280   0a1f     retai   0x1f             	retai 0x1f
000281   0a26     retai   0x26             	retai 0x26
000282   0a58     retai   0x58             	retai 0x58
000283   0af7     retai   0xf7             	retai 0xf7
000284   0add     retai   0xdd             	retai 0xdd
                                           
                                           
                                           ID_IR_2	code
                                           _RedTbl
000285   0a0e     retai   0xe              	retai 0x0e
000286   0aff     retai   0xff             	retai 0xff
000287   0aff     retai   0xff             	retai 0xff
000288   0a1a     retai   0x1a             	retai 0x1a
000289   0aa0     retai   0xa0             	retai 0xa0
00028a   0ae3     retai   0xe3             	retai 0xe3
00028b   0a00     retai   0                	retai 0x00
00028c   0aae     retai   0xae             	retai 0xae
00028d   0a31     retai   0x31             	retai 0x31
00028e   0ae3     retai   0xe3             	retai 0xe3
00028f   0a27     retai   0x27             	retai 0x27
000290   0aae     retai   0xae             	retai 0xae
                                           
                                           
                                           ;@Allocation info for local variables in function 'IRSbr'
                                           ;@IRSbr IRSbr4                    Allocated to registers ;size:2
                                           ;@IRSbr IRSbr                     Allocated to registers ;size:2
                                           ;@IRSbr STATUSbits                Allocated to registers ;size:1
                                           ;@IRSbr P0bits                    Allocated to registers ;size:1
                                           ;@IRSbr P1bits                    Allocated to registers ;size:1
                                           ;@IRSbr MCRbits                   Allocated to registers ;size:1
                                           ;@IRSbr KBIMbits                  Allocated to registers ;size:1
                                           ;@IRSbr PDCONbits                 Allocated to registers ;size:1
                                           ;@IRSbr ODCONbits                 Allocated to registers ;size:1
                                           ;@IRSbr PUCONbits                 Allocated to registers ;size:1
                                           ;@IRSbr INTECONbits               Allocated to registers ;size:1
                                           ;@IRSbr INTFLAGbits               Allocated to registers ;size:1
                                           ;@IRSbr T0CRbits                  Allocated to registers ;size:1
                                           ;@IRSbr DDR0bits                  Allocated to registers ;size:1
                                           ;@IRSbr DDR1bits                  Allocated to registers ;size:1
                                           ;@IRSbr TMCRbits                  Allocated to registers ;size:1
                                           ;@IRSbr T1CRbits                  Allocated to registers ;size:1
                                           ;@IRSbr ABuf                      Allocated to registers ;size:1
                                           ;@IRSbr StatusBuf                 Allocated to registers ;size:1
                                           ;@IRSbr T1s                       Allocated to registers ;size:1
                                           ;@IRSbr TRedCnt                   Allocated to registers ;size:1
                                           ;@IRSbr TRed                      Allocated to registers ;size:1
                                           ;@IRSbr TGreen                    Allocated to registers ;size:1
                                           ;@IRSbr TBlue                     Allocated to registers ;size:1
                                           ;@IRSbr IRTmr                     Allocated to registers ;size:1
                                           ;@IRSbr Custom                    Allocated to registers ;size:1
                                           ;@IRSbr CustomRev                 Allocated to registers ;size:1
                                           ;@IRSbr IRCode1                   Allocated to registers ;size:1
                                           ;@IRSbr IRCodeRev1                Allocated to registers ;size:1
                                           ;@IRSbr BitCnt                    Allocated to registers ;size:1
                                           ;@IRSbr delay                     Allocated to registers ;size:1
                                           ;@IRSbr Tmr                       Allocated to registers ;size:2
                                           ;@IRSbr TStop                     Allocated to registers ;size:1
                                           ;@IRSbr T40ms                     Allocated to registers ;size:1
                                           ;@IRSbr ModeCnt                   Allocated to registers ;size:1
                                           ;@IRSbr Step                      Allocated to registers ;size:1
                                           ;@IRSbr delay05ms                 Allocated to registers ;size:1
                                           ;@IRSbr Flag1                     Allocated to registers ;size:1
                                           ;@IRSbr Flag2                     Allocated to registers ;size:1
                                           ;@IRSbr INDF                      Allocated to registers ;size:1
                                           ;@IRSbr T0CNT                     Allocated to registers ;size:1
                                           ;@IRSbr PCL                       Allocated to registers ;size:1
                                           ;@IRSbr STATUS                    Allocated to registers ;size:1
                                           ;@IRSbr FSR                       Allocated to registers ;size:1
                                           ;@IRSbr P0                        Allocated to registers ;size:1
                                           ;@IRSbr P1                        Allocated to registers ;size:1
                                           ;@IRSbr GPR                       Allocated to registers ;size:1
                                           ;@IRSbr MCR                       Allocated to registers ;size:1
                                           ;@IRSbr KBIM                      Allocated to registers ;size:1
                                           ;@IRSbr PCLATH                    Allocated to registers ;size:1
                                           ;@IRSbr PDCON                     Allocated to registers ;size:1
                                           ;@IRSbr ODCON                     Allocated to registers ;size:1
                                           ;@IRSbr PUCON                     Allocated to registers ;size:1
                                           ;@IRSbr INTECON                   Allocated to registers ;size:1
                                           ;@IRSbr INTFLAG                   Allocated to registers ;size:1
                                           ;@IRSbr T0CR                      Allocated to registers ;size:1
                                           ;@IRSbr DDR0                      Allocated to registers ;size:1
                                           ;@IRSbr DDR1                      Allocated to registers ;size:1
                                           ;@IRSbr TMCR                      Allocated to registers ;size:1
                                           ;@IRSbr T1CR                      Allocated to registers ;size:1
                                           ;@IRSbr T1CNT                     Allocated to registers ;size:1
                                           ;@IRSbr T1LOAD                    Allocated to registers ;size:1
                                           ;@IRSbr T1DATA                    Allocated to registers ;size:1
                                           ;@end Allocation info for local variables in function 'IRSbr';
                                           ;@Allocation info for local variables in function 'IROffKeySbr'
                                           ;@end Allocation info for local variables in function 'IROffKeySbr';
                                           ;@Allocation info for local variables in function 'IRSbr4'
                                           ;@IRSbr4 i                         Allocated to registers r0x1012 ;size:1
                                           ;@end Allocation info for local variables in function 'IRSbr4';
                                           
                                           ;--------------------------------------------------------
                                           ; overlayable items in internal ram 
                                           ;--------------------------------------------------------
                                           ;	udata_ovr
                                           ;--------------------------------------------------------
                                           ; code
                                           ;--------------------------------------------------------
                                           code_IR	code
                                           ;***
                                           ;  pBlock Stats: dbName = C
                                           ;***
                                           ;entry:  _IRSbr4	;Function start
                                           ; 2 exit points
                                           ;has an exit
                                           ;functions called:
                                           ;   _IROffKeySbr
                                           ;   __gptrget1
                                           ;   __gptrget1
                                           ;   __gptrget1
                                           ;   _IROffKeySbr
                                           ;   __gptrget1
                                           ;   __gptrget1
                                           ;   __gptrget1
                                           ;5 compiler assigned registers:
                                           ;   r0x1012
                                           ;   r0x1013
                                           ;   r0x1014
                                           ;   STK01
                                           ;   STK00
                                           ;; Starting pCode block
                                           _IRSbr4	;Function start
                                           ; 2 exit points
                                           ;	.line	92; "IR.c"	FLead = 0;
000045   3e33     bclr    0x33, 0x4        	BCLR	_Flag1,4
                                           ;	.line	94; "IR.c"	i = ~IRCode1;
000046   1c2a     comar   0x2a             	COMAR	_IRCode1
000047   1597     movra   0x17             	MOVRA	r0x1012
                                           ;	.line	95; "IR.c"	if (IRCodeRev1 != i) return;
000048   1617     movar   0x17             	MOVAR	r0x1012
000049   102b     xorar   0x2b             	XORAR	_IRCodeRev1
00004a   3103     jbset   0x3, 0x2         	JBSET	STATUS,2
00004b   284d     goto    0x4d             	GOTO	_00227_DS_
00004c   284e     goto    0x4e             	GOTO	_00127_DS_
                                           _00227_DS_
00004d   290c     goto    0x10c            	GOTO	_00175_DS_
                                           _00127_DS_
                                           ;	.line	97; "IR.c"	i = ~Custom;
00004e   1c28     comar   0x28             	COMAR	_Custom
00004f   1597     movra   0x17             	MOVRA	r0x1012
                                           ;	.line	98; "IR.c"	if (CustomRev != i) return;
000050   1617     movar   0x17             	MOVAR	r0x1012
000051   1029     xorar   0x29             	XORAR	_CustomRev
000052   3103     jbset   0x3, 0x2         	JBSET	STATUS,2
000053   2855     goto    0x55             	GOTO	_00228_DS_
000054   2856     goto    0x56             	GOTO	_00129_DS_
                                           _00228_DS_
000055   290c     goto    0x10c            	GOTO	_00175_DS_
                                           _00129_DS_
                                           ;	.line	99; "IR.c"	if (Custom != CIDCode) return;
000056   0b00     movai   0                	MOVAI	0x00
000057   1728     orar    0x28             	ORAR	_Custom
000058   3503     jbclr   0x3, 0x2         	JBCLR	STATUS,2
000059   285b     goto    0x5b             	GOTO	_00131_DS_
00005a   290c     goto    0x10c            	GOTO	_00175_DS_
                                           _00131_DS_
                                           ;	.line	101; "IR.c"	if (FIRAck) return;
00005b   31b3     jbset   0x33, 0x3        	JBSET	_Flag1,3
00005c   285e     goto    0x5e             	GOTO	_00133_DS_
00005d   290c     goto    0x10c            	GOTO	_00175_DS_
                                           _00133_DS_
                                           ;	.line	102; "IR.c"	FIRAck = 1;
00005e   39b3     bset    0x33, 0x3        	BSET	_Flag1,3
                                           ;	.line	104; "IR.c"	if (IRCodeRev1 == CIRON)
00005f   162b     movar   0x2b             	MOVAR	_IRCodeRev1
000060   0845     xorai   0x45             	XORAI	0x45
000061   3103     jbset   0x3, 0x2         	JBSET	STATUS,2
000062   2868     goto    0x68             	GOTO	_00137_DS_
                                           ;	.line	106; "IR.c"	if (FOn) return;
000063   3033     jbset   0x33, 0          	JBSET	_Flag1,0
000064   2866     goto    0x66             	GOTO	_00135_DS_
000065   290c     goto    0x10c            	GOTO	_00175_DS_
                                           _00135_DS_
                                           ;	.line	107; "IR.c"	FOn = 1;
000066   3833     bset    0x33, 0          	BSET	_Flag1,0
                                           ;	.line	108; "IR.c"	FTmr = 0;
000067   3eb3     bclr    0x33, 0x5        	BCLR	_Flag1,5
                                           _00137_DS_
                                           ;	.line	110; "IR.c"	if (!FOn) return;
000068   3433     jbclr   0x33, 0          	JBCLR	_Flag1,0
000069   286b     goto    0x6b             	GOTO	_00139_DS_
00006a   290c     goto    0x10c            	GOTO	_00175_DS_
                                           _00139_DS_
                                           ;	.line	112; "IR.c"	if (IRCodeRev1 == CIROFF)
00006b   162b     movar   0x2b             	MOVAR	_IRCodeRev1
00006c   0846     xorai   0x46             	XORAI	0x46
00006d   3103     jbset   0x3, 0x2         	JBSET	STATUS,2
00006e   2871     goto    0x71             	GOTO	_00141_DS_
                                           ;	.line	114; "IR.c"	IROffKeySbr();
00006f   210d     call    0x10d            	CALL	_IROffKeySbr
                                           ;	.line	115; "IR.c"	return;
000070   290c     goto    0x10c            	GOTO	_00175_DS_
                                           _00141_DS_
                                           ;	.line	117; "IR.c"	if (IRCodeRev1 == CIRMODE)
000071   162b     movar   0x2b             	MOVAR	_IRCodeRev1
000072   0847     xorai   0x47             	XORAI	0x47
000073   3103     jbset   0x3, 0x2         	JBSET	STATUS,2
000074   287e     goto    0x7e             	GOTO	_00143_DS_
                                           ;	.line	123; "IR.c"	__endasm;
000075   0b20     movai   0x20             	movai 0x20
000076   10b4     xorra   0x34             	xorra _Flag2
                                           	
                                           ;	.line	124; "IR.c"	Step = 10;
000077   0b0a     movai   0xa              	MOVAI	0x0a
000078   15b1     movra   0x31             	MOVRA	_Step
                                           ;	.line	125; "IR.c"	FDirection = 0;
000079   3cb3     bclr    0x33, 0x1        	BCLR	_Flag1,1
                                           ;	.line	126; "IR.c"	ModeCnt = 0;
00007a   1db0     clrr    0x30             	CLRR	_ModeCnt
                                           ;	.line	127; "IR.c"	T40ms = 0xff;
00007b   0bff     movai   0xff             	MOVAI	0xff
00007c   15af     movra   0x2f             	MOVRA	_T40ms
                                           ;	.line	128; "IR.c"	return;
00007d   290c     goto    0x10c            	GOTO	_00175_DS_
                                           _00143_DS_
                                           ;	.line	130; "IR.c"	if (IRCodeRev1 == CIR4H)
00007e   162b     movar   0x2b             	MOVAR	_IRCodeRev1
00007f   0844     xorai   0x44             	XORAI	0x44
000080   3103     jbset   0x3, 0x2         	JBSET	STATUS,2
000081   288a     goto    0x8a             	GOTO	_00146_DS_
                                           ;	.line	132; "IR.c"	Tmr = 0x3840;
000082   0b40     movai   0x40             	MOVAI	0x40
000083   159a     movra   0x1a             	MOVRA	_Tmr
000084   0b38     movai   0x38             	MOVAI	0x38
000085   159b     movra   0x1b             	MOVRA	(_Tmr + 1)
                                           _00144_DS_
                                           ;	.line	134; "IR.c"	T1s = 250;
000086   0bfa     movai   0xfa             	MOVAI	0xfa
000087   15a2     movra   0x22             	MOVRA	_T1s
                                           ;	.line	135; "IR.c"	FTmr = 1;
000088   3ab3     bset    0x33, 0x5        	BSET	_Flag1,5
                                           ;	.line	136; "IR.c"	return;
000089   290c     goto    0x10c            	GOTO	_00175_DS_
                                           _00146_DS_
                                           ;	.line	138; "IR.c"	if (IRCodeRev1 == CIR8H)
00008a   162b     movar   0x2b             	MOVAR	_IRCodeRev1
00008b   0840     xorai   0x40             	XORAI	0x40
00008c   3103     jbset   0x3, 0x2         	JBSET	STATUS,2
00008d   2893     goto    0x93             	GOTO	_00148_DS_
                                           ;	.line	140; "IR.c"	Tmr = 0x7080;
00008e   0b80     movai   0x80             	MOVAI	0x80
00008f   159a     movra   0x1a             	MOVRA	_Tmr
000090   0b70     movai   0x70             	MOVAI	0x70
000091   159b     movra   0x1b             	MOVRA	(_Tmr + 1)
                                           ;	.line	141; "IR.c"	goto    IR4HKeySbr1;
000092   2886     goto    0x86             	GOTO	_00144_DS_
                                           _00148_DS_
                                           ;	.line	143; "IR.c"	if (IRCodeRev1 == CIRMCOLR)
000093   162b     movar   0x2b             	MOVAR	_IRCodeRev1
000094   0843     xorai   0x43             	XORAI	0x43
000095   3103     jbset   0x3, 0x2         	JBSET	STATUS,2
000096   289a     goto    0x9a             	GOTO	_00150_DS_
                                           ;	.line	149; "IR.c"	__endasm;
000097   0b10     movai   0x10             	movai 0x10
000098   10b4     xorra   0x34             	xorra _Flag2
                                           	
                                           ;	.line	150; "IR.c"	return;
000099   290c     goto    0x10c            	GOTO	_00175_DS_
                                           _00150_DS_
                                           ;	.line	152; "IR.c"	if (IRCodeRev1 == CIRCOLR1) {i = 0;}
00009a   162b     movar   0x2b             	MOVAR	_IRCodeRev1
00009b   0816     xorai   0x16             	XORAI	0x16
00009c   3103     jbset   0x3, 0x2         	JBSET	STATUS,2
00009d   289f     goto    0x9f             	GOTO	_00152_DS_
00009e   1d97     clrr    0x17             	CLRR	r0x1012
                                           _00152_DS_
                                           ;	.line	153; "IR.c"	if (IRCodeRev1 == CIRCOLR2) {i = 1;}
00009f   162b     movar   0x2b             	MOVAR	_IRCodeRev1
0000a0   0819     xorai   0x19             	XORAI	0x19
0000a1   3103     jbset   0x3, 0x2         	JBSET	STATUS,2
0000a2   28a5     goto    0xa5             	GOTO	_00154_DS_
0000a3   0b01     movai   0x1              	MOVAI	0x01
0000a4   1597     movra   0x17             	MOVRA	r0x1012
                                           _00154_DS_
                                           ;	.line	154; "IR.c"	if (IRCodeRev1 == CIRCOLR3) {i = 2;}
0000a5   162b     movar   0x2b             	MOVAR	_IRCodeRev1
0000a6   080d     xorai   0xd              	XORAI	0x0d
0000a7   3103     jbset   0x3, 0x2         	JBSET	STATUS,2
0000a8   28ab     goto    0xab             	GOTO	_00156_DS_
0000a9   0b02     movai   0x2              	MOVAI	0x02
0000aa   1597     movra   0x17             	MOVRA	r0x1012
                                           _00156_DS_
                                           ;	.line	155; "IR.c"	if (IRCodeRev1 == CIRCOLR4) {i = 3;}
0000ab   162b     movar   0x2b             	MOVAR	_IRCodeRev1
0000ac   080c     xorai   0xc              	XORAI	0x0c
0000ad   3103     jbset   0x3, 0x2         	JBSET	STATUS,2
0000ae   28b1     goto    0xb1             	GOTO	_00158_DS_
0000af   0b03     movai   0x3              	MOVAI	0x03
0000b0   1597     movra   0x17             	MOVRA	r0x1012
                                           _00158_DS_
                                           ;	.line	156; "IR.c"	if (IRCodeRev1 == CIRCOLR5) {i = 4;}
0000b1   162b     movar   0x2b             	MOVAR	_IRCodeRev1
0000b2   0818     xorai   0x18             	XORAI	0x18
0000b3   3103     jbset   0x3, 0x2         	JBSET	STATUS,2
0000b4   28b7     goto    0xb7             	GOTO	_00160_DS_
0000b5   0b04     movai   0x4              	MOVAI	0x04
0000b6   1597     movra   0x17             	MOVRA	r0x1012
                                           _00160_DS_
                                           ;	.line	157; "IR.c"	if (IRCodeRev1 == CIRCOLR6) {i = 5;}
0000b7   162b     movar   0x2b             	MOVAR	_IRCodeRev1
0000b8   085e     xorai   0x5e             	XORAI	0x5e
0000b9   3103     jbset   0x3, 0x2         	JBSET	STATUS,2
0000ba   28bd     goto    0xbd             	GOTO	_00162_DS_
0000bb   0b05     movai   0x5              	MOVAI	0x05
0000bc   1597     movra   0x17             	MOVRA	r0x1012
                                           _00162_DS_
                                           ;	.line	158; "IR.c"	if (IRCodeRev1 == CIRCOLR7) {i = 6;}
0000bd   162b     movar   0x2b             	MOVAR	_IRCodeRev1
0000be   0808     xorai   0x8              	XORAI	0x08
0000bf   3103     jbset   0x3, 0x2         	JBSET	STATUS,2
0000c0   28c3     goto    0xc3             	GOTO	_00164_DS_
0000c1   0b06     movai   0x6              	MOVAI	0x06
0000c2   1597     movra   0x17             	MOVRA	r0x1012
                                           _00164_DS_
                                           ;	.line	159; "IR.c"	if (IRCodeRev1 == CIRCOLR8) {i = 7;}
0000c3   162b     movar   0x2b             	MOVAR	_IRCodeRev1
0000c4   081c     xorai   0x1c             	XORAI	0x1c
0000c5   3103     jbset   0x3, 0x2         	JBSET	STATUS,2
0000c6   28c9     goto    0xc9             	GOTO	_00166_DS_
0000c7   0b07     movai   0x7              	MOVAI	0x07
0000c8   1597     movra   0x17             	MOVRA	r0x1012
                                           _00166_DS_
                                           ;	.line	160; "IR.c"	if (IRCodeRev1 == CIRCOLR9) {i = 8;}
0000c9   162b     movar   0x2b             	MOVAR	_IRCodeRev1
0000ca   085a     xorai   0x5a             	XORAI	0x5a
0000cb   3103     jbset   0x3, 0x2         	JBSET	STATUS,2
0000cc   28cf     goto    0xcf             	GOTO	_00168_DS_
0000cd   0b08     movai   0x8              	MOVAI	0x08
0000ce   1597     movra   0x17             	MOVRA	r0x1012
                                           _00168_DS_
                                           ;	.line	161; "IR.c"	if (IRCodeRev1 == CIRCOLRA) {i = 9;}
0000cf   162b     movar   0x2b             	MOVAR	_IRCodeRev1
0000d0   0842     xorai   0x42             	XORAI	0x42
0000d1   3103     jbset   0x3, 0x2         	JBSET	STATUS,2
0000d2   28d5     goto    0xd5             	GOTO	_00170_DS_
0000d3   0b09     movai   0x9              	MOVAI	0x09
0000d4   1597     movra   0x17             	MOVRA	r0x1012
                                           _00170_DS_
                                           ;	.line	162; "IR.c"	if (IRCodeRev1 == CIRCOLRB) {i = 10;}
0000d5   162b     movar   0x2b             	MOVAR	_IRCodeRev1
0000d6   0852     xorai   0x52             	XORAI	0x52
0000d7   3103     jbset   0x3, 0x2         	JBSET	STATUS,2
0000d8   28db     goto    0xdb             	GOTO	_00172_DS_
0000d9   0b0a     movai   0xa              	MOVAI	0x0a
0000da   1597     movra   0x17             	MOVRA	r0x1012
                                           _00172_DS_
                                           ;	.line	163; "IR.c"	if (IRCodeRev1 == CIRCOLRC) {i = 11;}
0000db   162b     movar   0x2b             	MOVAR	_IRCodeRev1
0000dc   084a     xorai   0x4a             	XORAI	0x4a
0000dd   3103     jbset   0x3, 0x2         	JBSET	STATUS,2
0000de   28e1     goto    0xe1             	GOTO	_00174_DS_
0000df   0b0b     movai   0xb              	MOVAI	0x0b
0000e0   1597     movra   0x17             	MOVRA	r0x1012
                                           _00174_DS_
                                           ;	.line	165; "IR.c"	FMultiColor = 0;
0000e1   3e34     bclr    0x34, 0x4        	BCLR	_Flag2,4
                                           ;	.line	168; "IR.c"	TRed = RedTbl[i];
0000e2   1617     movar   0x17             	MOVAR	r0x1012
0000e3   0e85     addai   0x85             	ADDAI	(_RedTbl + 0)
0000e4   1598     movra   0x18             	MOVRA	r0x1013
0000e5   0b02     movai   0x2              	MOVAI	high (_RedTbl + 0)
0000e6   3403     jbclr   0x3, 0           	JBCLR	STATUS,0
0000e7   0e01     addai   0x1              	ADDAI	0x01
0000e8   1599     movra   0x19             	MOVRA	r0x1014
0000e9   1618     movar   0x18             	MOVAR	r0x1013
0000ea   1595     movra   0x15             	MOVRA	STK01
0000eb   1619     movar   0x19             	MOVAR	r0x1014
0000ec   1596     movra   0x16             	MOVRA	STK00
0000ed   0b80     movai   0x80             	MOVAI	0x80
0000ee   225d     call    0x25d            	CALL	__gptrget1
0000ef   15a4     movra   0x24             	MOVRA	_TRed
                                           ;	.line	169; "IR.c"	TGreen = GreenTbl[i];
0000f0   1617     movar   0x17             	MOVAR	r0x1012
0000f1   0e79     addai   0x79             	ADDAI	(_GreenTbl + 0)
0000f2   1598     movra   0x18             	MOVRA	r0x1013
0000f3   0b02     movai   0x2              	MOVAI	high (_GreenTbl + 0)
0000f4   3403     jbclr   0x3, 0           	JBCLR	STATUS,0
0000f5   0e01     addai   0x1              	ADDAI	0x01
0000f6   1599     movra   0x19             	MOVRA	r0x1014
0000f7   1618     movar   0x18             	MOVAR	r0x1013
0000f8   1595     movra   0x15             	MOVRA	STK01
0000f9   1619     movar   0x19             	MOVAR	r0x1014
0000fa   1596     movra   0x16             	MOVRA	STK00
0000fb   0b80     movai   0x80             	MOVAI	0x80
0000fc   225d     call    0x25d            	CALL	__gptrget1
0000fd   15a5     movra   0x25             	MOVRA	_TGreen
                                           ;	.line	170; "IR.c"	TBlue = BlueTbl[i];
0000fe   1617     movar   0x17             	MOVAR	r0x1012
0000ff   0e6d     addai   0x6d             	ADDAI	(_BlueTbl + 0)
000100   1597     movra   0x17             	MOVRA	r0x1012
000101   0b02     movai   0x2              	MOVAI	high (_BlueTbl + 0)
000102   3403     jbclr   0x3, 0           	JBCLR	STATUS,0
000103   0e01     addai   0x1              	ADDAI	0x01
000104   1598     movra   0x18             	MOVRA	r0x1013
000105   1617     movar   0x17             	MOVAR	r0x1012
000106   1595     movra   0x15             	MOVRA	STK01
000107   1618     movar   0x18             	MOVAR	r0x1013
000108   1596     movra   0x16             	MOVRA	STK00
000109   0b80     movai   0x80             	MOVAI	0x80
00010a   225d     call    0x25d            	CALL	__gptrget1
00010b   15a6     movra   0x26             	MOVRA	_TBlue
                                           _00175_DS_
                                           ;	.line	172; "IR.c"	return;
00010c   000c     return                   	RETURN	
                                           ; exit point of _IRSbr4
                                           
                                           ;***
                                           ;  pBlock Stats: dbName = C
                                           ;***
                                           ;entry:  _IROffKeySbr	;Function start
                                           ; 2 exit points
                                           ;has an exit
                                           ;; Starting pCode block
                                           _IROffKeySbr	;Function start
                                           ; 2 exit points
                                           ;	.line	83; "IR.c"	FOn = 0;
00010d   3c33     bclr    0x33, 0          	BCLR	_Flag1,0
                                           ;	.line	84; "IR.c"	FStop = 1;
00010e   3bb3     bset    0x33, 0x7        	BSET	_Flag1,7
                                           ;	.line	85; "IR.c"	TStop = 3;
00010f   0b03     movai   0x3              	MOVAI	0x03
000110   15ae     movra   0x2e             	MOVRA	_TStop
000111   000c     return                   	RETURN	
                                           ; exit point of _IROffKeySbr
                                           
                                           ;***
                                           ;  pBlock Stats: dbName = C
                                           ;***
                                           ;entry:  _IRSbr	;Function start
                                           ; 2 exit points
                                           ;has an exit
                                           ;functions called:
                                           ;   _IRSbr4
                                           ;   _IRSbr4
                                           ;; Starting pCode block
                                           _IRSbr	;Function start
                                           ; 2 exit points
                                           ;	.line	41; "IR.c"	if (!FLead)                                 //;
000112   3633     jbclr   0x33, 0x4        	JBCLR	_Flag1,4
000113   2927     goto    0x127            	GOTO	_00110_DS_
                                           ;;unsigned compare: left < lit(0x41=65), size=1
                                           ;	.line	43; "IR.c"	if (IRTmr < CHEAD-5) return;
000114   0b41     movai   0x41             	MOVAI	0x41
000115   1227     rsubar  0x27             	RSUBAR	_IRTmr
000116   3403     jbclr   0x3, 0           	JBCLR	STATUS,0
000117   2919     goto    0x119            	GOTO	_00106_DS_
                                           ;;genSkipc:3251: created from rifx:0028608C
000118   293e     goto    0x13e            	GOTO	_00117_DS_
                                           ;;swapping arguments (AOP_TYPEs 1/3)
                                           ;;unsigned compare: left >= lit(0x4C=76), size=1
                                           _00106_DS_
                                           ;	.line	44; "IR.c"	if (IRTmr > CHEAD+5) return;
000119   0b4c     movai   0x4c             	MOVAI	0x4c
00011a   1227     rsubar  0x27             	RSUBAR	_IRTmr
00011b   3003     jbset   0x3, 0           	JBSET	STATUS,0
00011c   291e     goto    0x11e            	GOTO	_00108_DS_
                                           ;;genSkipc:3251: created from rifx:0028608C
00011d   293e     goto    0x13e            	GOTO	_00117_DS_
                                           _00108_DS_
                                           ;	.line	45; "IR.c"	FLead = 1;                      //;
00011e   3a33     bset    0x33, 0x4        	BSET	_Flag1,4
                                           ;	.line	46; "IR.c"	Custom = 0;
00011f   1da8     clrr    0x28             	CLRR	_Custom
                                           ;	.line	47; "IR.c"	CustomRev = 0;
000120   1da9     clrr    0x29             	CLRR	_CustomRev
                                           ;	.line	48; "IR.c"	IRCode1 = 0;
000121   1daa     clrr    0x2a             	CLRR	_IRCode1
                                           ;	.line	49; "IR.c"	IRCodeRev1 = 0;
000122   1dab     clrr    0x2b             	CLRR	_IRCodeRev1
                                           ;	.line	50; "IR.c"	FIRAck = 0;
000123   3db3     bclr    0x33, 0x3        	BCLR	_Flag1,3
                                           ;	.line	51; "IR.c"	BitCnt = 32;
000124   0b20     movai   0x20             	MOVAI	0x20
000125   15ac     movra   0x2c             	MOVRA	_BitCnt
                                           ;	.line	52; "IR.c"	return;
000126   293e     goto    0x13e            	GOTO	_00117_DS_
                                           ;;swapping arguments (AOP_TYPEs 1/3)
                                           ;;unsigned compare: left >= lit(0x29=41), size=1
                                           _00110_DS_
                                           ;	.line	55; "IR.c"	if (IRTmr > CCodeR+5) {FLead = 0; return;}
000127   0b29     movai   0x29             	MOVAI	0x29
000128   1227     rsubar  0x27             	RSUBAR	_IRTmr
000129   3003     jbset   0x3, 0           	JBSET	STATUS,0
00012a   292d     goto    0x12d            	GOTO	_00112_DS_
                                           ;;genSkipc:3251: created from rifx:0028608C
00012b   3e33     bclr    0x33, 0x4        	BCLR	_Flag1,4
00012c   293e     goto    0x13e            	GOTO	_00117_DS_
                                           ;;unsigned compare: left < lit(0x1E=30), size=1
                                           _00112_DS_
                                           ;	.line	56; "IR.c"	if (IRTmr >= CCodeR-5) 
00012d   0b1e     movai   0x1e             	MOVAI	0x1e
00012e   1227     rsubar  0x27             	RSUBAR	_IRTmr
00012f   3003     jbset   0x3, 0           	JBSET	STATUS,0
000130   2932     goto    0x132            	GOTO	_00114_DS_
                                           ;;genSkipc:3251: created from rifx:0028608C
                                           ;	.line	66; "IR.c"	return;
000131   293e     goto    0x13e            	GOTO	_00117_DS_
                                           _00114_DS_
                                           ;	.line	77; "IR.c"	__endasm;
000132   0b11     movai   0x11             	movai 8 +(26 -8)/2
000133   1227     rsubar  0x27             	rsubar _IRTmr
000134   13aa     rrr     0x2a             	rrr _IRCode1
000135   13ab     rrr     0x2b             	rrr _IRCodeRev1
000136   13a8     rrr     0x28             	rrr _Custom
000137   13a9     rrr     0x29             	rrr _CustomRev
                                           	
                                           ;	.line	78; "IR.c"	if (--BitCnt == 0) IRSbr4();
000138   1bac     decr    0x2c             	DECR	_BitCnt
000139   0b00     movai   0                	MOVAI	0x00
00013a   172c     orar    0x2c             	ORAR	_BitCnt
00013b   3103     jbset   0x3, 0x2         	JBSET	STATUS,2
00013c   293e     goto    0x13e            	GOTO	_00117_DS_
00013d   2045     call    0x45             	CALL	_IRSbr4
                                           _00117_DS_
00013e   000c     return                   	RETURN	
                                           ; exit point of _IRSbr
                                           
                                           
                                           ;	code size estimation:
                                           ;	  240+    0 =   240 instructions (  480 byte)
                                           
                                           	end
                                           ;--------------------------------------------------------
                                           ; File Created by SN-SDCC : ANSI-C Compiler
                                           ; Version 0.0.4 (Aug  7 2015) (MINGW32)
                                           ; This file was generated Thu Jun 23 15:01:26 2016
                                           ;--------------------------------------------------------
                                           ; MC3X port for the RISC core
                                           ;--------------------------------------------------------
                                           ;	.file	"T1sSbr.c"
                                           	list	p=0311
                                           	radix dec
                                           	include "0311.inc"
                                           
                                           ;MC30P01A.INC  Standard Header File, Version 1.00 by Sinomcu
                                           
                                           
                                           ;==========================================================================
                                           ;
                                           ;       Revision History
                                           ;
                                           ;==========================================================================
                                           
                                           ;Rev:   Date:    Reason:
                                           
                                           ;1.00   12/06/21 Initial Release
                                           
                                           ;==========================================================================
                                           ;
                                           ;       Verify Processor
                                           ;
                                           ;==========================================================================
                                           ;==========================================================================
                                           ;
                                           ;       Register Definitions
                                           ;
                                           ;==========================================================================
                                           
                                           ;----- Register Files------------------------------------------------------
                                           
                                           INDF                         EQU     H'0000'
                                           T0CNT                        EQU     H'0001'
                                           PCL                          EQU     H'0002'
                                           STATUS                       EQU     H'0003'
                                           FSR                          EQU     H'0004'
                                           P0                           EQU     H'0005'
                                           P1                           EQU     H'0006'
                                           MCR                          EQU     H'0008'
                                           KBIM                         EQU     H'0009'
                                           PCLATH                       EQU     H'000A'
                                           PDCON                        EQU     H'000B'
                                           ODCON                        EQU     H'000C'
                                           PUCON                        EQU     H'000D'
                                           INTECON                      EQU     H'000E'
                                           INTFLAG                      EQU     H'000F'
                                           T0CR                         EQU     H'0041'
                                           DDR0                         EQU     H'0045'
                                           DDR1                         EQU     H'0046'
                                           TMCR                         EQU     H'004B'
                                           T1CR                         EQU     H'004C'
                                           T1CNT                        EQU     H'004D'
                                           T1LOAD                       EQU     H'004E'
                                           T1DATA                       EQU     H'004F'
                                           
                                           ;INDF 
                                           #define         INDF7          INDF,7
                                           #define         INDF6          INDF,6
                                           #define         INDF5          INDF,5
                                           #define         INDF4          INDF,4
                                           #define         INDF3          INDF,3
                                           #define         INDF2          INDF,2
                                           #define         INDF1          INDF,1
                                           #define         INDF0          INDF,0
                                           
                                           ;T0CNT 
                                           #define         T0C7           T0CNT,7
                                           #define         T0C6           T0CNT,6
                                           #define         T0C5           T0CNT,5
                                           #define         T0C4           T0CNT,4
                                           #define         T0C3           T0CNT,3
                                           #define         T0C2           T0CNT,2
                                           #define         T0C1           T0CNT,1
                                           #define         T0C0           T0CNT,0
                                           
                                           ;PCL 
                                           #define         PC7             PCL,7
                                           #define         PC6             PCL,6
                                           #define         PC5             PCL,5
                                           #define         PC4             PCL,4
                                           #define         PC3             PCL,3
                                           #define         PC2             PCL,2
                                           #define         PC1             PCL,1
                                           #define         PC0             PCL,0
                                           
                                           ;----- STATUS Bits --------------------------
                                           #define	RST	  STATUS,7
                                           #define	TO	  STATUS,4
                                           #define	PD	  STATUS,3
                                           #define	Z	    STATUS,2
                                           #define	DC	  STATUS,1
                                           #define	C	    STATUS,0
                                           
                                           ;FSR 
                                           #define         FSR5           FSR,5
                                           #define         FSR4           FSR,4
                                           #define         FSR3           FSR,3
                                           #define         FSR2           FSR,2
                                           #define         FSR1           FSR,1
                                           #define         FSR0           FSR,0
                                           
                                           ;P0 
                                           #define         P03D           P0,3
                                           #define         P02D           P0,2
                                           #define         P01D           P0,1
                                           #define         P00D           P0,0
                                           
                                           ;P1 
                                           #define         P17D           P1,7
                                           #define         P16D           P1,6
                                           #define         P15D           P1,5
                                           #define         P14D           P1,4
                                           #define         P12D           P1,2
                                           #define         P11D           P1,1
                                           #define         P10D           P1,0
                                           
                                           ;----- MCR Bits --------------------------------------------------------
                                           #define	WDTEN	MCR,7
                                           #define	EIS	  MCR,6
                                           
                                           ;KBIM 
                                           #define         KBIM7           KBIM,7
                                           #define         KBIM6           KBIM,6
                                           #define         KBIM5           KBIM,5
                                           #define         KBIM4           KBIM,4
                                           #define         KBIM3           KBIM,3
                                           #define         KBIM2           KBIM,2
                                           #define         KBIM1           KBIM,1
                                           #define         KBIM0           KBIM,0
                                           
                                           ;----- PCLATH Bits --------------------------------------------------------
                                           #define	PCH1	  PCLATH,1
                                           #define	PCH0	  PCLATH,0
                                           
                                           ;PDCON
                                           #define         P12PD           PDCON,6
                                           #define         P11PD           PDCON,5
                                           #define         P10PD           PDCON,4
                                           #define         P03PD           PDCON,3
                                           #define         P02PD           PDCON,2
                                           #define         P01PD           PDCON,1
                                           #define         P00PD           PDCON,0
                                           
                                           ;ODCON
                                           #define         P17OD           ODCON,7
                                           #define         P16OD           ODCON,6
                                           #define         P15OD           ODCON,5
                                           #define         P14OD           ODCON,4
                                           #define         P12OD           ODCON,2
                                           #define         P11OD           ODCON,1
                                           #define         P10OD           ODCON,0
                                           
                                           ;PUCON
                                           #define         P17PU           PUCON,7
                                           #define         P16PU           PUCON,6
                                           #define         P15PU           PUCON,5
                                           #define         P14PU           PUCON,4
                                           #define         P12PU           PUCON,2
                                           #define         P11PU           PUCON,1
                                           #define         P10PU           PUCON,0
                                           
                                           ;----- INTECON Bits --------------------------------------------------------
                                           #define	INTE	INTECON
                                           #define	GIE	INTECON,7
                                           #define	INT0IE	INTECON,2
                                           #define	KBIE	INTECON,1
                                           #define	T0IE	INTECON,0
                                           
                                           ;----- INTFLAG Bits --------------------------------------------------------
                                           #define	INTF	  INTFLAG
                                           #define	INT0IF	INTF,2
                                           #define	KBIF	  INTF,1
                                           #define	T0IF	  INTF,0
                                           
                                           ;----- T0CR Bits --------------------------------------------------------
                                           #define         INT0M           T0CR,6
                                           #define         T0PTS           T0CR,5
                                           #define         T0SE            T0CR,4
                                           #define         T0PTA           T0CR,3
                                           #define         T0PR2           T0CR,2
                                           #define         T0PR1           T0CR,1
                                           #define         T0PR0           T0CR,0
                                           
                                           ;DDR0
                                           #define         DDR03           DDR0,3
                                           #define         DDR02           DDR0,2
                                           #define         DDR01           DDR0,1
                                           #define         DDR00           DDR0,0
                                           
                                           ;DDR1
                                           #define         DDR17           DDR1,7
                                           #define         DDR16           DDR1,6
                                           #define         DDR15           DDR1,5
                                           #define         DDR14           DDR1,4
                                           #define         DDR12           DDR1,2
                                           #define         DDR11           DDR1,1
                                           #define         DDR10           DDR1,0
                                           
                                           ;------TMCR -----------------
                                           #define TBS     TMCR,7
                                           #define T1IE    TMCR,1
                                           #define T1IF    TMCR,0
                                           
                                           ;-------T1CR----------
                                           #define TMR1EN  T1CR,7
                                           #define PWMOUT  T1CR,6
                                           #define BUZOUT  T1CR,5
                                           #define T1PTS1  T1CR,4
                                           #define T1PTS0  T1CR,3
                                           #define T1PR2   T1CR,2
                                           #define T1PR1   T1CR,1
                                           #define T1PR0   T1CR,0
                                           
                                           ;T1CNT
                                           #define T1C7   T1CNT,7
                                           #define T1C6   T1CNT,6
                                           #define T1C5   T1CNT,5
                                           #define T1C4   T1CNT,4
                                           #define T1C3   T1CNT,3
                                           #define T1C2   T1CNT,2
                                           #define T1C1   T1CNT,1
                                           #define T1C0   T1CNT,0
                                           
                                           ;T1LOAD
                                           #define T1LOAD7   T1LOAD,7
                                           #define T1LOAD6   T1LOAD,6
                                           #define T1LOAD5   T1LOAD,5
                                           #define T1LOAD4   T1LOAD,4
                                           #define T1LOAD3   T1LOAD,3
                                           #define T1LOAD2   T1LOAD,2
                                           #define T1LOAD1   T1LOAD,1
                                           #define T1LOAD0   T1LOAD,0
                                           
                                           ;T1DATA
                                           #define T1DATA7   T1DATA,7
                                           #define T1DATA6   T1DATA,6
                                           #define T1DATA5   T1DATA,5
                                           #define T1DATA4   T1DATA,4
                                           #define T1DATA3   T1DATA,3
                                           #define T1DATA2   T1DATA,2
                                           #define T1DATA1   T1DATA,1
                                           #define T1DATA0   T1DATA,0
                                           ;--------------------------------------------------------
                                           ; external declarations
                                           ;--------------------------------------------------------
                                           	extern	_IROffKeySbr
                                           	extern	_STATUSbits
                                           	extern	_P0bits
                                           	extern	_P1bits
                                           	extern	_MCRbits
                                           	extern	_KBIMbits
                                           	extern	_PDCONbits
                                           	extern	_ODCONbits
                                           	extern	_PUCONbits
                                           	extern	_INTECONbits
                                           	extern	_INTFLAGbits
                                           	extern	_T0CRbits
                                           	extern	_DDR0bits
                                           	extern	_DDR1bits
                                           	extern	_TMCRbits
                                           	extern	_T1CRbits
                                           	extern	_ABuf
                                           	extern	_StatusBuf
                                           	extern	_T1s
                                           	extern	_TRedCnt
                                           	extern	_TRed
                                           	extern	_TGreen
                                           	extern	_TBlue
                                           	extern	_IRTmr
                                           	extern	_Custom
                                           	extern	_CustomRev
                                           	extern	_IRCode1
                                           	extern	_IRCodeRev1
                                           	extern	_BitCnt
                                           	extern	_delay
                                           	extern	_Tmr
                                           	extern	_TStop
                                           	extern	_T40ms
                                           	extern	_ModeCnt
                                           	extern	_Step
                                           	extern	_delay05ms
                                           	extern	_Flag1
                                           	extern	_Flag2
                                           	extern	_INDF
                                           	extern	_T0CNT
                                           	extern	_PCL
                                           	extern	_STATUS
                                           	extern	_FSR
                                           	extern	_P0
                                           	extern	_P1
                                           	extern	_GPR
                                           	extern	_MCR
                                           	extern	_KBIM
                                           	extern	_PCLATH
                                           	extern	_PDCON
                                           	extern	_ODCON
                                           	extern	_PUCON
                                           	extern	_INTECON
                                           	extern	_INTFLAG
                                           	extern	_T0CR
                                           	extern	_DDR0
                                           	extern	_DDR1
                                           	extern	_TMCR
                                           	extern	_T1CR
                                           	extern	_T1CNT
                                           	extern	_T1LOAD
                                           	extern	_T1DATA
                                           
                                           	extern STK06
                                           	extern STK05
                                           	extern STK04
                                           	extern STK03
                                           	extern STK02
                                           	extern STK01
                                           	extern STK00
                                           ;--------------------------------------------------------
                                           ; global declarations
                                           ;--------------------------------------------------------
                                           	global	_T1sSbr
                                           
                                           ;--------------------------------------------------------
                                           ; global definitions
                                           ;--------------------------------------------------------
                                           ;--------------------------------------------------------
                                           ; absolute symbol definitions
                                           ;--------------------------------------------------------
                                           ;--------------------------------------------------------
                                           ; compiler-defined variables
                                           ;--------------------------------------------------------
                                           ;--------------------------------------------------------
                                           ; initialized data
                                           ;--------------------------------------------------------
                                           
                                           ;@Allocation info for local variables in function 'T1sSbr'
                                           ;@T1sSbr IROffKeySbr               Allocated to registers ;size:2
                                           ;@T1sSbr T1sSbr                    Allocated to registers ;size:2
                                           ;@T1sSbr STATUSbits                Allocated to registers ;size:1
                                           ;@T1sSbr P0bits                    Allocated to registers ;size:1
                                           ;@T1sSbr P1bits                    Allocated to registers ;size:1
                                           ;@T1sSbr MCRbits                   Allocated to registers ;size:1
                                           ;@T1sSbr KBIMbits                  Allocated to registers ;size:1
                                           ;@T1sSbr PDCONbits                 Allocated to registers ;size:1
                                           ;@T1sSbr ODCONbits                 Allocated to registers ;size:1
                                           ;@T1sSbr PUCONbits                 Allocated to registers ;size:1
                                           ;@T1sSbr INTECONbits               Allocated to registers ;size:1
                                           ;@T1sSbr INTFLAGbits               Allocated to registers ;size:1
                                           ;@T1sSbr T0CRbits                  Allocated to registers ;size:1
                                           ;@T1sSbr DDR0bits                  Allocated to registers ;size:1
                                           ;@T1sSbr DDR1bits                  Allocated to registers ;size:1
                                           ;@T1sSbr TMCRbits                  Allocated to registers ;size:1
                                           ;@T1sSbr T1CRbits                  Allocated to registers ;size:1
                                           ;@T1sSbr ABuf                      Allocated to registers ;size:1
                                           ;@T1sSbr StatusBuf                 Allocated to registers ;size:1
                                           ;@T1sSbr T1s                       Allocated to registers ;size:1
                                           ;@T1sSbr TRedCnt                   Allocated to registers ;size:1
                                           ;@T1sSbr TRed                      Allocated to registers ;size:1
                                           ;@T1sSbr TGreen                    Allocated to registers ;size:1
                                           ;@T1sSbr TBlue                     Allocated to registers ;size:1
                                           ;@T1sSbr IRTmr                     Allocated to registers ;size:1
                                           ;@T1sSbr Custom                    Allocated to registers ;size:1
                                           ;@T1sSbr CustomRev                 Allocated to registers ;size:1
                                           ;@T1sSbr IRCode1                   Allocated to registers ;size:1
                                           ;@T1sSbr IRCodeRev1                Allocated to registers ;size:1
                                           ;@T1sSbr BitCnt                    Allocated to registers ;size:1
                                           ;@T1sSbr delay                     Allocated to registers ;size:1
                                           ;@T1sSbr Tmr                       Allocated to registers ;size:2
                                           ;@T1sSbr TStop                     Allocated to registers ;size:1
                                           ;@T1sSbr T40ms                     Allocated to registers ;size:1
                                           ;@T1sSbr ModeCnt                   Allocated to registers ;size:1
                                           ;@T1sSbr Step                      Allocated to registers ;size:1
                                           ;@T1sSbr delay05ms                 Allocated to registers ;size:1
                                           ;@T1sSbr Flag1                     Allocated to registers ;size:1
                                           ;@T1sSbr Flag2                     Allocated to registers ;size:1
                                           ;@T1sSbr INDF                      Allocated to registers ;size:1
                                           ;@T1sSbr T0CNT                     Allocated to registers ;size:1
                                           ;@T1sSbr PCL                       Allocated to registers ;size:1
                                           ;@T1sSbr STATUS                    Allocated to registers ;size:1
                                           ;@T1sSbr FSR                       Allocated to registers ;size:1
                                           ;@T1sSbr P0                        Allocated to registers ;size:1
                                           ;@T1sSbr P1                        Allocated to registers ;size:1
                                           ;@T1sSbr GPR                       Allocated to registers ;size:1
                                           ;@T1sSbr MCR                       Allocated to registers ;size:1
                                           ;@T1sSbr KBIM                      Allocated to registers ;size:1
                                           ;@T1sSbr PCLATH                    Allocated to registers ;size:1
                                           ;@T1sSbr PDCON                     Allocated to registers ;size:1
                                           ;@T1sSbr ODCON                     Allocated to registers ;size:1
                                           ;@T1sSbr PUCON                     Allocated to registers ;size:1
                                           ;@T1sSbr INTECON                   Allocated to registers ;size:1
                                           ;@T1sSbr INTFLAG                   Allocated to registers ;size:1
                                           ;@T1sSbr T0CR                      Allocated to registers ;size:1
                                           ;@T1sSbr DDR0                      Allocated to registers ;size:1
                                           ;@T1sSbr DDR1                      Allocated to registers ;size:1
                                           ;@T1sSbr TMCR                      Allocated to registers ;size:1
                                           ;@T1sSbr T1CR                      Allocated to registers ;size:1
                                           ;@T1sSbr T1CNT                     Allocated to registers ;size:1
                                           ;@T1sSbr T1LOAD                    Allocated to registers ;size:1
                                           ;@T1sSbr T1DATA                    Allocated to registers ;size:1
                                           ;@end Allocation info for local variables in function 'T1sSbr';
                                           
                                           ;--------------------------------------------------------
                                           ; overlayable items in internal ram 
                                           ;--------------------------------------------------------
                                           ;	udata_ovr
                                           ;--------------------------------------------------------
                                           ; code
                                           ;--------------------------------------------------------
                                           code_T1sSbr	code
                                           ;***
                                           ;  pBlock Stats: dbName = C
                                           ;***
                                           ;entry:  _T1sSbr	;Function start
                                           ; 2 exit points
                                           ;has an exit
                                           ;functions called:
                                           ;   _IROffKeySbr
                                           ;   _IROffKeySbr
                                           ;   _IROffKeySbr
                                           ;   _IROffKeySbr
                                           ;; Starting pCode block
                                           _T1sSbr	;Function start
                                           ; 2 exit points
                                           ;	.line	9; "T1sSbr.c"	if (--T1s != 0) return;
00022c   1ba2     decr    0x22             	DECR	_T1s
00022d   0b00     movai   0                	MOVAI	0x00
00022e   1722     orar    0x22             	ORAR	_T1s
00022f   3503     jbclr   0x3, 0x2         	JBCLR	STATUS,2
000230   2a32     goto    0x232            	GOTO	_00106_DS_
000231   2a49     goto    0x249            	GOTO	_00115_DS_
                                           _00106_DS_
                                           ;	.line	10; "T1sSbr.c"	T1s = 250;
000232   0bfa     movai   0xfa             	MOVAI	0xfa
000233   15a2     movra   0x22             	MOVRA	_T1s
                                           ;	.line	12; "T1sSbr.c"	if (!FOn)
000234   3433     jbclr   0x33, 0          	JBCLR	_Flag1,0
000235   2a3d     goto    0x23d            	GOTO	_00110_DS_
                                           ;	.line	14; "T1sSbr.c"	if (--TStop == 0) IROffKeySbr();
000236   1bae     decr    0x2e             	DECR	_TStop
000237   0b00     movai   0                	MOVAI	0x00
000238   172e     orar    0x2e             	ORAR	_TStop
000239   3103     jbset   0x3, 0x2         	JBSET	STATUS,2
00023a   2a3c     goto    0x23c            	GOTO	_00108_DS_
00023b   210d     call    0x10d            	CALL	_IROffKeySbr
                                           _00108_DS_
                                           ;	.line	15; "T1sSbr.c"	return;
00023c   2a49     goto    0x249            	GOTO	_00115_DS_
                                           _00110_DS_
                                           ;	.line	17; "T1sSbr.c"	if (!FTmr) return;
00023d   36b3     jbclr   0x33, 0x5        	JBCLR	_Flag1,5
00023e   2a40     goto    0x240            	GOTO	_00112_DS_
00023f   2a49     goto    0x249            	GOTO	_00115_DS_
                                           _00112_DS_
                                           ;	.line	18; "T1sSbr.c"	if (--Tmr == 0) IROffKeySbr();
000240   0bff     movai   0xff             	MOVAI	0xff
000241   1f9a     addra   0x1a             	ADDRA	_Tmr
000242   3003     jbset   0x3, 0           	JBSET	STATUS,0
000243   1b9b     decr    0x1b             	DECR	(_Tmr + 1)
000244   161a     movar   0x1a             	MOVAR	_Tmr
000245   171b     orar    0x1b             	ORAR	(_Tmr + 1)
000246   3103     jbset   0x3, 0x2         	JBSET	STATUS,2
000247   2a49     goto    0x249            	GOTO	_00115_DS_
000248   210d     call    0x10d            	CALL	_IROffKeySbr
                                           _00115_DS_
000249   000c     return                   	RETURN	
                                           ; exit point of _T1sSbr
                                           
                                           
                                           ;	code size estimation:
                                           ;	   30+    0 =    30 instructions (   60 byte)
                                           
                                           	end
                                           ;--------------------------------------------------------
                                           ; File Created by SN-SDCC : ANSI-C Compiler
                                           ; Version 0.0.4 (Jan  7 2016) (MINGW32)
                                           ; This file was generated Fri Apr 08 14:30:51 2016
                                           ;--------------------------------------------------------
                                           ; MC3X port for the RISC core
                                           ;--------------------------------------------------------
                                           ;	.file	"YKQ3011.c"
                                           	list	p=0311
                                           	radix dec
                                           	include "0311.inc"
                                           		LIST
                                           ;mc30p011.inc    Standard Header File, Version 1.00 by Sinomcu
                                           		NOLIST
                                           ;--------------------------------------------------------
                                           ; external declarations
                                           ;--------------------------------------------------------
                                           	extern	_InitialSys
                                           	extern	_InitalRAM
                                           	extern	_Mode2Sbr
                                           	extern	_MColorSbr
                                           	extern	_T1sSbr
                                           	extern	_STATUSbits
                                           	extern	_P0bits
                                           	extern	_P1bits
                                           	extern	_MCRbits
                                           	extern	_KBIMbits
                                           	extern	_PDCONbits
                                           	extern	_ODCONbits
                                           	extern	_PUCONbits
                                           	extern	_INTECONbits
                                           	extern	_INTFLAGbits
                                           	extern	_T0CRbits
                                           	extern	_DDR0bits
                                           	extern	_DDR1bits
                                           	extern	_TMCRbits
                                           	extern	_T1CRbits
                                           	extern	_INDF
                                           	extern	_T0CNT
                                           	extern	_PCL
                                           	extern	_STATUS
                                           	extern	_FSR
                                           	extern	_P0
                                           	extern	_P1
                                           	extern	_GPR
                                           	extern	_MCR
                                           	extern	_KBIM
                                           	extern	_PCLATH
                                           	extern	_PDCON
                                           	extern	_ODCON
                                           	extern	_PUCON
                                           	extern	_INTECON
                                           	extern	_INTFLAG
                                           	extern	_T0CR
                                           	extern	_DDR0
                                           	extern	_DDR1
                                           	extern	_TMCR
                                           	extern	_T1CR
                                           	extern	_T1CNT
                                           	extern	_T1LOAD
                                           	extern	_T1DATA
                                           	extern	__gptrget1
                                           ;--------------------------------------------------------
                                           ; global declarations
                                           ;--------------------------------------------------------
                                           	global	_main
                                           	global	_ABuf
                                           	global	_StatusBuf
                                           	global	_T1s
                                           	global	_TRedCnt
                                           	global	_TRed
                                           	global	_TGreen
                                           	global	_TBlue
                                           	global	_IRTmr
                                           	global	_Custom
                                           	global	_CustomRev
                                           	global	_IRCode1
                                           	global	_IRCodeRev1
                                           	global	_BitCnt
                                           	global	_delay
                                           	global	_Tmr
                                           	global	_TStop
                                           	global	_T40ms
                                           	global	_ModeCnt
                                           	global	_Step
                                           	global	_delay05ms
                                           	global	_Flag1
                                           	global	_Flag2
                                           	global	_time_125us
                                           	global	_time_10ms
                                           	global	_time_1s
                                           	global	_display_1
                                           	global	_display_1_data
                                           	global	_i
                                           	global	_CoilTab
                                           
                                           	global STK06
                                           	global STK05
                                           	global STK04
                                           	global STK03
                                           	global STK02
                                           	global STK01
                                           	global STK00
                                           
                                           sharebank udata_ovr 0x0010
                                           STK06	res 1
                                           STK05	res 1
                                           STK04	res 1
                                           STK03	res 1
                                           STK02	res 1
                                           STK01	res 1
                                           STK00	res 1
                                           
                                           ;--------------------------------------------------------
                                           ; global definitions
                                           ;--------------------------------------------------------
                                           UD_YKQ3011_0	udata
                                           _ABuf	res	1
                                           
                                           UD_YKQ3011_1	udata
                                           _StatusBuf	res	1
                                           
                                           UD_YKQ3011_2	udata
                                           _T1s	res	1
                                           
                                           UD_YKQ3011_3	udata
                                           _TRedCnt	res	1
                                           
                                           UD_YKQ3011_4	udata
                                           _TRed	res	1
                                           
                                           UD_YKQ3011_5	udata
                                           _TGreen	res	1
                                           
                                           UD_YKQ3011_6	udata
                                           _TBlue	res	1
                                           
                                           UD_YKQ3011_7	udata
                                           _IRTmr	res	1
                                           
                                           UD_YKQ3011_8	udata
                                           _Custom	res	1
                                           
                                           UD_YKQ3011_9	udata
                                           _CustomRev	res	1
                                           
                                           UD_YKQ3011_10	udata
                                           _IRCode1	res	1
                                           
                                           UD_YKQ3011_11	udata
                                           _IRCodeRev1	res	1
                                           
                                           UD_YKQ3011_12	udata
                                           _BitCnt	res	1
                                           
                                           UD_YKQ3011_13	udata
                                           _delay	res	1
                                           
                                           UD_YKQ3011_14	udata
                                           _Tmr	res	2
                                           
                                           UD_YKQ3011_15	udata
                                           _TStop	res	1
                                           
                                           UD_YKQ3011_16	udata
                                           _T40ms	res	1
                                           
                                           UD_YKQ3011_17	udata
                                           _ModeCnt	res	1
                                           
                                           UD_YKQ3011_18	udata
                                           _Step	res	1
                                           
                                           UD_YKQ3011_19	udata
                                           _delay05ms	res	1
                                           
                                           UD_YKQ3011_20	udata
                                           _Flag1	res	1
                                           
                                           UD_YKQ3011_21	udata
                                           _Flag2	res	1
                                           
                                           UD_YKQ3011_22	udata
                                           _time_125us	res	1
                                           
                                           UD_YKQ3011_23	udata
                                           _time_10ms	res	1
                                           
                                           UD_YKQ3011_24	udata
                                           _time_1s	res	1
                                           
                                           UD_YKQ3011_25	udata
                                           _display_1	res	1
                                           
                                           UD_YKQ3011_26	udata
                                           _display_1_data	res	1
                                           
                                           UD_YKQ3011_27	udata
                                           _i	res	2
                                           
                                           ;--------------------------------------------------------
                                           ; absolute symbol definitions
                                           ;--------------------------------------------------------
                                           ;--------------------------------------------------------
                                           ; compiler-defined variables
                                           ;--------------------------------------------------------
                                           UDL_YKQ3011_0	udata
                                           r0x1009	res	1
                                           r0x100A	res	1
                                           ;--------------------------------------------------------
                                           ; initialized data
                                           ;--------------------------------------------------------
                                           
                                           ID_YKQ3011_0	code
                                           _CoilTab
00024a   0a3f     retai   0x3f             	retai 0x3f
00024b   0a06     retai   0x6              	retai 0x06
00024c   0a5b     retai   0x5b             	retai 0x5b
00024d   0a4f     retai   0x4f             	retai 0x4f
00024e   0a66     retai   0x66             	retai 0x66
00024f   0a6d     retai   0x6d             	retai 0x6d
000250   0a7d     retai   0x7d             	retai 0x7d
000251   0a07     retai   0x7              	retai 0x07
000252   0a7f     retai   0x7f             	retai 0x7f
000253   0a6f     retai   0x6f             	retai 0x6f
000254   0a77     retai   0x77             	retai 0x77
000255   0a7c     retai   0x7c             	retai 0x7c
000256   0a39     retai   0x39             	retai 0x39
000257   0a5e     retai   0x5e             	retai 0x5e
000258   0a79     retai   0x79             	retai 0x79
000259   0a71     retai   0x71             	retai 0x71
00025a   0a73     retai   0x73             	retai 0x73
00025b   0a00     retai   0                	retai 0x00
00025c   0a00     retai   0                	retai 0x00
                                           
                                           
                                           ;@Allocation info for local variables in function 'main'
                                           ;@main InitialSys                Allocated to registers ;size:2
                                           ;@main InitalRAM                 Allocated to registers ;size:2
                                           ;@main Mode2Sbr                  Allocated to registers ;size:2
                                           ;@main MColorSbr                 Allocated to registers ;size:2
                                           ;@main T1sSbr                    Allocated to registers ;size:2
                                           ;@main main                      Allocated to registers ;size:2
                                           ;@main STATUSbits                Allocated to registers ;size:1
                                           ;@main P0bits                    Allocated to registers ;size:1
                                           ;@main P1bits                    Allocated to registers ;size:1
                                           ;@main MCRbits                   Allocated to registers ;size:1
                                           ;@main KBIMbits                  Allocated to registers ;size:1
                                           ;@main PDCONbits                 Allocated to registers ;size:1
                                           ;@main ODCONbits                 Allocated to registers ;size:1
                                           ;@main PUCONbits                 Allocated to registers ;size:1
                                           ;@main INTECONbits               Allocated to registers ;size:1
                                           ;@main INTFLAGbits               Allocated to registers ;size:1
                                           ;@main T0CRbits                  Allocated to registers ;size:1
                                           ;@main DDR0bits                  Allocated to registers ;size:1
                                           ;@main DDR1bits                  Allocated to registers ;size:1
                                           ;@main TMCRbits                  Allocated to registers ;size:1
                                           ;@main T1CRbits                  Allocated to registers ;size:1
                                           ;@main ABuf                      Allocated to registers ;size:1
                                           ;@main StatusBuf                 Allocated to registers ;size:1
                                           ;@main T1s                       Allocated to registers ;size:1
                                           ;@main TRedCnt                   Allocated to registers ;size:1
                                           ;@main TRed                      Allocated to registers ;size:1
                                           ;@main TGreen                    Allocated to registers ;size:1
                                           ;@main TBlue                     Allocated to registers ;size:1
                                           ;@main IRTmr                     Allocated to registers ;size:1
                                           ;@main Custom                    Allocated to registers ;size:1
                                           ;@main CustomRev                 Allocated to registers ;size:1
                                           ;@main IRCode1                   Allocated to registers ;size:1
                                           ;@main IRCodeRev1                Allocated to registers ;size:1
                                           ;@main BitCnt                    Allocated to registers ;size:1
                                           ;@main delay                     Allocated to registers ;size:1
                                           ;@main Tmr                       Allocated to registers ;size:2
                                           ;@main TStop                     Allocated to registers ;size:1
                                           ;@main T40ms                     Allocated to registers ;size:1
                                           ;@main ModeCnt                   Allocated to registers ;size:1
                                           ;@main Step                      Allocated to registers ;size:1
                                           ;@main delay05ms                 Allocated to registers ;size:1
                                           ;@main Flag1                     Allocated to registers ;size:1
                                           ;@main Flag2                     Allocated to registers ;size:1
                                           ;@main time_125us                Allocated to registers ;size:1
                                           ;@main time_10ms                 Allocated to registers ;size:1
                                           ;@main time_1s                   Allocated to registers ;size:1
                                           ;@main display_1                 Allocated to registers ;size:1
                                           ;@main display_1_data            Allocated to registers ;size:1
                                           ;@main i                         Allocated to registers ;size:2
                                           ;@main aaa                       Allocated to registers ;size:1
                                           ;@main INDF                      Allocated to registers ;size:1
                                           ;@main T0CNT                     Allocated to registers ;size:1
                                           ;@main PCL                       Allocated to registers ;size:1
                                           ;@main STATUS                    Allocated to registers ;size:1
                                           ;@main FSR                       Allocated to registers ;size:1
                                           ;@main P0                        Allocated to registers ;size:1
                                           ;@main P1                        Allocated to registers ;size:1
                                           ;@main GPR                       Allocated to registers ;size:1
                                           ;@main MCR                       Allocated to registers ;size:1
                                           ;@main KBIM                      Allocated to registers ;size:1
                                           ;@main PCLATH                    Allocated to registers ;size:1
                                           ;@main PDCON                     Allocated to registers ;size:1
                                           ;@main ODCON                     Allocated to registers ;size:1
                                           ;@main PUCON                     Allocated to registers ;size:1
                                           ;@main INTECON                   Allocated to registers ;size:1
                                           ;@main INTFLAG                   Allocated to registers ;size:1
                                           ;@main T0CR                      Allocated to registers ;size:1
                                           ;@main DDR0                      Allocated to registers ;size:1
                                           ;@main DDR1                      Allocated to registers ;size:1
                                           ;@main TMCR                      Allocated to registers ;size:1
                                           ;@main T1CR                      Allocated to registers ;size:1
                                           ;@main T1CNT                     Allocated to registers ;size:1
                                           ;@main T1LOAD                    Allocated to registers ;size:1
                                           ;@main T1DATA                    Allocated to registers ;size:1
                                           ;@end Allocation info for local variables in function 'main';
                                           
                                           ;--------------------------------------------------------
                                           ; overlayable items in internal ram 
                                           ;--------------------------------------------------------
                                           ;	udata_ovr
                                           ;--------------------------------------------------------
                                           ; reset vector 
                                           ;--------------------------------------------------------
                                           STARTUP	code 0x0000
000000   293f     goto    0x13f            	goto	_main
                                           ;--------------------------------------------------------
                                           ; code
                                           ;--------------------------------------------------------
                                           code_YKQ3011	code
                                           ;***
                                           ;  pBlock Stats: dbName = M
                                           ;***
                                           ;entry:  _main	;Function start
                                           ; 2 exit points
                                           ;has an exit
                                           ;functions called:
                                           ;   _InitialSys
                                           ;   _InitalRAM
                                           ;   __gptrget1
                                           ;   _Mode2Sbr
                                           ;   _MColorSbr
                                           ;   _T1sSbr
                                           ;   _InitialSys
                                           ;   _InitalRAM
                                           ;   __gptrget1
                                           ;   _Mode2Sbr
                                           ;   _MColorSbr
                                           ;   _T1sSbr
                                           ;4 compiler assigned registers:
                                           ;   r0x1009
                                           ;   r0x100A
                                           ;   STK01
                                           ;   STK00
                                           ;; Starting pCode block
                                           _main	;Function start
                                           ; 2 exit points
                                           ;	.line	27; "YKQ3011.c"	GIE = 0;    
00013f   3f8e     bclr    0xe, 0x7         	BCLR	_INTECONbits,7
                                           ;	.line	28; "YKQ3011.c"	ClrWdt();
000140   000e     clrwdt                   	clrwdt
                                           ;	.line	29; "YKQ3011.c"	InitialSys();
000141   2212     call    0x212            	CALL	_InitialSys
                                           ;	.line	30; "YKQ3011.c"	InitalRAM();
000142   2207     call    0x207            	CALL	_InitalRAM
                                           ;	.line	31; "YKQ3011.c"	FMultiColor = 1;
000143   3a34     bset    0x34, 0x4        	BSET	_Flag2,4
                                           ;	.line	32; "YKQ3011.c"	FOn = 1;
000144   3833     bset    0x33, 0          	BSET	_Flag1,0
                                           ;	.line	33; "YKQ3011.c"	pIR = 1;
000145   3986     bset    0x6, 0x3         	BSET	_P1bits,3
                                           ;	.line	34; "YKQ3011.c"	KBIE = 1;
000146   388e     bset    0xe, 0x1         	BSET	_INTECONbits,1
                                           ;	.line	35; "YKQ3011.c"	KBIM3 = 1;
000147   3989     bset    0x9, 0x3         	BSET	_KBIMbits,3
                                           ;	.line	36; "YKQ3011.c"	GIE = 1;
000148   3b8e     bset    0xe, 0x7         	BSET	_INTECONbits,7
                                           ;	.line	37; "YKQ3011.c"	for(i=0;i<19;i++)
000149   1d9c     clrr    0x1c             	CLRR	_i
00014a   1d9d     clrr    0x1d             	CLRR	(_i + 1)
                                           ;;signed compare: left < lit(0x13=19), size=2, mask=ffff
                                           _00140_DS_
00014b   161d     movar   0x1d             	MOVAR	(_i + 1)
00014c   0e80     addai   0x80             	ADDAI	0x80
00014d   0e80     addai   0x80             	ADDAI	0x80
00014e   3103     jbset   0x3, 0x2         	JBSET	STATUS,2
00014f   2952     goto    0x152            	GOTO	_00180_DS_
000150   0b13     movai   0x13             	MOVAI	0x13
000151   121c     rsubar  0x1c             	RSUBAR	_i
                                           _00180_DS_
000152   3403     jbclr   0x3, 0           	JBCLR	STATUS,0
000153   2968     goto    0x168            	GOTO	_00138_DS_
                                           ;;genSkipc:3251: created from rifx:0028608C
                                           ;	.line	39; "YKQ3011.c"	display_1_data = i;
000154   161c     movar   0x1c             	MOVAR	_i
000155   15b9     movra   0x39             	MOVRA	_display_1_data
                                           ;	.line	40; "YKQ3011.c"	display_1      = CoilTab[display_1_data];
000156   1639     movar   0x39             	MOVAR	_display_1_data
000157   0e4a     addai   0x4a             	ADDAI	(_CoilTab + 0)
000158   159e     movra   0x1e             	MOVRA	r0x1009
000159   0b02     movai   0x2              	MOVAI	high (_CoilTab + 0)
00015a   3403     jbclr   0x3, 0           	JBCLR	STATUS,0
00015b   0e01     addai   0x1              	ADDAI	0x01
00015c   159f     movra   0x1f             	MOVRA	r0x100A
00015d   161e     movar   0x1e             	MOVAR	r0x1009
00015e   1595     movra   0x15             	MOVRA	STK01
00015f   161f     movar   0x1f             	MOVAR	r0x100A
000160   1596     movra   0x16             	MOVRA	STK00
000161   0b80     movai   0x80             	MOVAI	0x80
000162   225d     call    0x25d            	CALL	__gptrget1
000163   15b8     movra   0x38             	MOVRA	_display_1
                                           ;	.line	37; "YKQ3011.c"	for(i=0;i<19;i++)
000164   199c     incr    0x1c             	INCR	_i
000165   3503     jbclr   0x3, 0x2         	JBCLR	STATUS,2
000166   199d     incr    0x1d             	INCR	(_i + 1)
000167   294b     goto    0x14b            	GOTO	_00140_DS_
                                           _00138_DS_
                                           ;	.line	44; "YKQ3011.c"	if (FStop)
000168   33b3     jbset   0x33, 0x7        	JBSET	_Flag1,7
000169   296c     goto    0x16c            	GOTO	_00106_DS_
                                           ;	.line	46; "YKQ3011.c"	T1IF = 0;
00016a   3c4b     bclr    0x4b, 0          	BCLR	_TMCRbits,0
                                           ;	.line	47; "YKQ3011.c"	T0IF = 0;
00016b   3c0f     bclr    0xf, 0           	BCLR	_INTFLAGbits,0
                                           _00106_DS_
                                           ;	.line	49; "YKQ3011.c"	if ((delay05ms != 0)||(!FOn))
00016c   0b00     movai   0                	MOVAI	0x00
00016d   1732     orar    0x32             	ORAR	_delay05ms
00016e   3103     jbset   0x3, 0x2         	JBSET	STATUS,2
00016f   2972     goto    0x172            	GOTO	_00112_DS_
000170   3433     jbclr   0x33, 0          	JBCLR	_Flag1,0
000171   2976     goto    0x176            	GOTO	_00113_DS_
                                           _00112_DS_
                                           ;	.line	51; "YKQ3011.c"	pRedC = 1;
000172   3846     bset    0x46, 0          	BSET	_DDR1bits,0
                                           ;	.line	52; "YKQ3011.c"	pGreenC = 1;
000173   38c6     bset    0x46, 0x1        	BSET	_DDR1bits,1
                                           ;	.line	53; "YKQ3011.c"	pBlueC = 1;
000174   3946     bset    0x46, 0x2        	BSET	_DDR1bits,2
000175   2989     goto    0x189            	GOTO	_00114_DS_
                                           _00113_DS_
                                           ;	.line	57; "YKQ3011.c"	switch(FMultiColor)
000176   1d9e     clrr    0x1e             	CLRR	r0x1009
000177   3634     jbclr   0x34, 0x4        	JBCLR	_Flag2,4
000178   199e     incr    0x1e             	INCR	r0x1009
                                           ;;100	MOVAR	r0x1009
                                           ;;99	MOVAR	r0x100A
000179   161e     movar   0x1e             	MOVAR	r0x1009
00017a   159f     movra   0x1f             	MOVRA	r0x100A
00017b   3103     jbset   0x3, 0x2         	JBSET	STATUS,2
00017c   297e     goto    0x17e            	GOTO	_00181_DS_
00017d   2986     goto    0x186            	GOTO	_00108_DS_
                                           _00181_DS_
00017e   161f     movar   0x1f             	MOVAR	r0x100A
00017f   0801     xorai   0x1              	XORAI	0x01
000180   3103     jbset   0x3, 0x2         	JBSET	STATUS,2
000181   2989     goto    0x189            	GOTO	_00114_DS_
                                           ;	.line	60; "YKQ3011.c"	pRedC = 0;
000182   3c46     bclr    0x46, 0          	BCLR	_DDR1bits,0
                                           ;	.line	61; "YKQ3011.c"	pGreenC = 0;
000183   3cc6     bclr    0x46, 0x1        	BCLR	_DDR1bits,1
                                           ;	.line	62; "YKQ3011.c"	pBlueC = 0;
000184   3d46     bclr    0x46, 0x2        	BCLR	_DDR1bits,2
                                           ;	.line	63; "YKQ3011.c"	break;
000185   2989     goto    0x189            	GOTO	_00114_DS_
                                           _00108_DS_
                                           ;	.line	66; "YKQ3011.c"	if (FCandle) Mode2Sbr();
000186   32b4     jbset   0x34, 0x5        	JBSET	_Flag2,5
000187   2989     goto    0x189            	GOTO	_00114_DS_
000188   21b3     call    0x1b3            	CALL	_Mode2Sbr
                                           _00114_DS_
                                           ;	.line	71; "YKQ3011.c"	if (F4ms)
000189   3134     jbset   0x34, 0x2        	JBSET	_Flag2,2
00018a   2968     goto    0x168            	GOTO	_00138_DS_
                                           ;	.line	73; "YKQ3011.c"	F4ms = 0;
00018b   3d34     bclr    0x34, 0x2        	BCLR	_Flag2,2
                                           ;	.line	74; "YKQ3011.c"	ClrWdt();
00018c   000e     clrwdt                   	clrwdt
                                           ;	.line	75; "YKQ3011.c"	if (delay05ms == 0)
00018d   0b00     movai   0                	MOVAI	0x00
00018e   1732     orar    0x32             	ORAR	_delay05ms
00018f   3103     jbset   0x3, 0x2         	JBSET	STATUS,2
000190   29af     goto    0x1af            	GOTO	_00133_DS_
                                           ;	.line	77; "YKQ3011.c"	if (FOn)
000191   3033     jbset   0x33, 0          	JBSET	_Flag1,0
000192   29b0     goto    0x1b0            	GOTO	_00134_DS_
                                           ;	.line	79; "YKQ3011.c"	if (FMultiColor) MColorSbr();
000193   3234     jbset   0x34, 0x4        	JBSET	_Flag2,4
000194   2997     goto    0x197            	GOTO	_00128_DS_
000195   21c4     call    0x1c4            	CALL	_MColorSbr
000196   29b0     goto    0x1b0            	GOTO	_00134_DS_
                                           _00128_DS_
                                           ;	.line	82; "YKQ3011.c"	if (FCandle)
000197   32b4     jbset   0x34, 0x5        	JBSET	_Flag2,5
000198   29b0     goto    0x1b0            	GOTO	_00134_DS_
                                           ;	.line	85; "YKQ3011.c"	if (++T40ms > 10)
000199   19af     incr    0x2f             	INCR	_T40ms
                                           ;;swapping arguments (AOP_TYPEs 1/3)
                                           ;;unsigned compare: left >= lit(0xB=11), size=1
00019a   0b0b     movai   0xb              	MOVAI	0x0b
00019b   122f     rsubar  0x2f             	RSUBAR	_T40ms
00019c   3003     jbset   0x3, 0           	JBSET	STATUS,0
00019d   29b0     goto    0x1b0            	GOTO	_00134_DS_
                                           ;;genSkipc:3251: created from rifx:0028608C
                                           ;	.line	87; "YKQ3011.c"	T40ms = 0;
00019e   1daf     clrr    0x2f             	CLRR	_T40ms
                                           ;	.line	88; "YKQ3011.c"	if (FDirection)
00019f   30b3     jbset   0x33, 0x1        	JBSET	_Flag1,1
0001a0   29a8     goto    0x1a8            	GOTO	_00121_DS_
                                           ;	.line	90; "YKQ3011.c"	if (++Step > 50) FDirection = 0;
0001a1   19b1     incr    0x31             	INCR	_Step
                                           ;;swapping arguments (AOP_TYPEs 1/3)
                                           ;;unsigned compare: left >= lit(0x33=51), size=1
0001a2   0b33     movai   0x33             	MOVAI	0x33
0001a3   1231     rsubar  0x31             	RSUBAR	_Step
0001a4   3003     jbset   0x3, 0           	JBSET	STATUS,0
0001a5   29b0     goto    0x1b0            	GOTO	_00134_DS_
                                           ;;genSkipc:3251: created from rifx:0028608C
0001a6   3cb3     bclr    0x33, 0x1        	BCLR	_Flag1,1
0001a7   29b0     goto    0x1b0            	GOTO	_00134_DS_
                                           _00121_DS_
                                           ;	.line	94; "YKQ3011.c"	if (--Step < 10) FDirection = 1;
0001a8   1bb1     decr    0x31             	DECR	_Step
                                           ;;unsigned compare: left < lit(0xA=10), size=1
0001a9   0b0a     movai   0xa              	MOVAI	0x0a
0001aa   1231     rsubar  0x31             	RSUBAR	_Step
0001ab   3403     jbclr   0x3, 0           	JBCLR	STATUS,0
0001ac   29b0     goto    0x1b0            	GOTO	_00134_DS_
                                           ;;genSkipc:3251: created from rifx:0028608C
0001ad   38b3     bset    0x33, 0x1        	BSET	_Flag1,1
0001ae   29b0     goto    0x1b0            	GOTO	_00134_DS_
                                           _00133_DS_
                                           ;	.line	101; "YKQ3011.c"	else --delay05ms;
0001af   1bb2     decr    0x32             	DECR	_delay05ms
                                           _00134_DS_
                                           ;	.line	102; "YKQ3011.c"	T1sSbr();
0001b0   222c     call    0x22c            	CALL	_T1sSbr
0001b1   2968     goto    0x168            	GOTO	_00138_DS_
0001b2   000c     return                   	RETURN	
                                           ; exit point of _main
                                           
                                           
                                           ;	code size estimation:
                                           ;	  114+    0 =   114 instructions (  228 byte)
                                           
                                           	end


MEMORY USAGE MAP ('X' = Used,  '-' = Unused)

0000 : XX-------------- XXXXXXXXXXXXXXXX XXXXXXXXXXXXXXXX XXXXXXXXXXXXXXXX
0040 : XXXXXXXXXXXXXXXX XXXXXXXXXXXXXXXX XXXXXXXXXXXXXXXX XXXXXXXXXXXXXXXX
0080 : XXXXXXXXXXXXXXXX XXXXXXXXXXXXXXXX XXXXXXXXXXXXXXXX XXXXXXXXXXXXXXXX
00C0 : XXXXXXXXXXXXXXXX XXXXXXXXXXXXXXXX XXXXXXXXXXXXXXXX XXXXXXXXXXXXXXXX
0100 : XXXXXXXXXXXXXXXX XXXXXXXXXXXXXXXX XXXXXXXXXXXXXXXX XXXXXXXXXXXXXXXX
0140 : XXXXXXXXXXXXXXXX XXXXXXXXXXXXXXXX XXXXXXXXXXXXXXXX XXXXXXXXXXXXXXXX
0180 : XXXXXXXXXXXXXXXX XXXXXXXXXXXXXXXX XXXXXXXXXXXXXXXX XXXXXXXXXXXXXXXX
01C0 : XXXXXXXXXXXXXXXX XXXXXXXXXXXXXXXX XXXXXXXXXXXXXXXX XXXXXXXXXXXXXXXX
0200 : XXXXXXXXXXXXXXXX XXXXXXXXXXXXXXXX XXXXXXXXXXXXXXXX XXXXXXXXXXXXXXXX
0240 : XXXXXXXXXXXXXXXX XXXXXXXXXXXXXXXX XXXXXXXXXXXXXXXX XXXXXXXXXXXXXXXX
0280 : XXXXXXXXXXXXXXXX XXXXXXXXXXXXXXXX XXXXXXXXXXXXXXXX XXXXXXXXXXXXXXXX
02C0 : XXXXXXXXXXXXXXXX XXXXXXXXXXXXXXXX XXXXXXXXXXXXXXXX XXXXXXXXXXXXXXXX
0300 : XXXXXXXXXXXXXXXX XXXXXXXXXXXXXXXX XXXXXXXXXXXXXXXX XXXXXXXXXXXXXXXX
0340 : XXXXXXXXXXXXXXXX XXXXXXXXXXXXXXXX XXXXXXXXXXXXXXXX XXXXXXXXXXXXXXXX
0380 : XXXXXXXXXXXXXXXX XXXXXXXXXXXXXXXX XXXXXXXXXXXXXXXX XXXXXXXXXXXXXXXX
03C0 : XXXXXXXXXXXXXXXX XXXXXXXXXXXXXXXX XXXXXXXXXXXXXXXX XXXXXXXXXXXXXXXX
0400 : XXXXXXXXXXXXXXXX XXXXXXXXXXXXXXXX XXXXXXXXXXXXXXXX XXXXXXXXXXXXXXXX
0440 : XXXXXXXXXXXXXXXX XXXXXXXXXXXXXXXX XXXXXXXXXXXXXXXX XXXXXXXXXXXXXXXX
0480 : XXXXXXXXXXXXXXXX XXXXXXXXXXXXXXXX XXXXXXXXXXXXXXXX XXXXXXXXXXXXXXXX
04C0 : XXXXXXXXXXXXXXXX XXXXXXXXXXXXXXXX XXXXXXXXXXXXXXXX XXXXXXXXXXXXXXXX
0500 : XXXXXXXXXXXXXXXX XXXXXXXXXXXXXXXX XX-------------- ----------------

All other memory blocks unused.

Program Memory Words Used:   650

